
rk3328.elf:     file format elf32-littlearm


Disassembly of section .text:

ffff0000 <.text>:
ffff0000:	58000940 	ldr	x0, 0xffff0128
ffff0004:	b9400000 	ldr	w0, [x0]
ffff0008:	367800a0 	tbz	w0, #15, 0xffff001c
ffff000c:	580008a0 	ldr	x0, 0xffff0120
ffff0010:	b9400000 	ldr	w0, [x0]
ffff0014:	12001400 	and	w0, w0, #0x3f
ffff0018:	34000220 	cbz	w0, 0xffff005c
ffff001c:	d53800a0 	mrs	x0, mpidr_el1
ffff0020:	92402000 	and	x0, x0, #0x1ff
ffff0024:	f100001f 	cmp	x0, #0x0
ffff0028:	54000200 	b.eq	0xffff0068  // b.none
ffff002c:	580006e0 	ldr	x0, 0xffff0108
ffff0030:	52800021 	mov	w1, #0x1                   	// #1
ffff0034:	b9000001 	str	w1, [x0]
ffff0038:	d503205f 	wfe
ffff003c:	180006e2 	ldr	w2, 0xffff0118
ffff0040:	58000640 	ldr	x0, 0xffff0108
ffff0044:	b9400001 	ldr	w1, [x0]
ffff0048:	6b02003f 	cmp	w1, w2
ffff004c:	54ffff61 	b.ne	0xffff0038  // b.any
ffff0050:	58000601 	ldr	x1, 0xffff0110
ffff0054:	b9400020 	ldr	w0, [x1]
ffff0058:	d61f0000 	br	x0
ffff005c:	580006a1 	ldr	x1, 0xffff0130
ffff0060:	b9400020 	ldr	w0, [x1]
ffff0064:	d61f0000 	br	x0
ffff0068:	aa1f03e0 	mov	x0, xzr
ffff006c:	aa1f03e1 	mov	x1, xzr
ffff0070:	aa1f03e2 	mov	x2, xzr
ffff0074:	aa1f03e3 	mov	x3, xzr
ffff0078:	aa1f03e4 	mov	x4, xzr
ffff007c:	aa1f03e5 	mov	x5, xzr
ffff0080:	aa1f03e6 	mov	x6, xzr
ffff0084:	aa1f03e7 	mov	x7, xzr
ffff0088:	aa1f03e8 	mov	x8, xzr
ffff008c:	aa1f03e9 	mov	x9, xzr
ffff0090:	aa1f03ea 	mov	x10, xzr
ffff0094:	aa1f03eb 	mov	x11, xzr
ffff0098:	aa1f03ec 	mov	x12, xzr
ffff009c:	aa1f03ed 	mov	x13, xzr
ffff00a0:	aa1f03ee 	mov	x14, xzr
ffff00a4:	aa1f03ef 	mov	x15, xzr
ffff00a8:	aa1f03f0 	mov	x16, xzr
ffff00ac:	aa1f03f1 	mov	x17, xzr
ffff00b0:	aa1f03f2 	mov	x18, xzr
ffff00b4:	aa1f03f3 	mov	x19, xzr
ffff00b8:	aa1f03f4 	mov	x20, xzr
ffff00bc:	aa1f03f5 	mov	x21, xzr
ffff00c0:	aa1f03f6 	mov	x22, xzr
ffff00c4:	aa1f03f7 	mov	x23, xzr
ffff00c8:	aa1f03f8 	mov	x24, xzr
ffff00cc:	aa1f03f9 	mov	x25, xzr
ffff00d0:	aa1f03fa 	mov	x26, xzr
ffff00d4:	aa1f03fb 	mov	x27, xzr
ffff00d8:	aa1f03fc 	mov	x28, xzr
ffff00dc:	aa1f03fd 	mov	x29, xzr
ffff00e0:	aa1f03fe 	mov	x30, xzr
ffff00e4:	580000a0 	ldr	x0, 0xffff00f8
ffff00e8:	9100001f 	mov	sp, x0
ffff00ec:	580000a0 	ldr	x0, 0xffff0100
ffff00f0:	d51ec000 	msr	vbar_el3, x0
ffff00f4:	14001065 	b	0xffff4288
ffff00f8:	ff091000 	.inst	0xff091000 ; undefined
ffff00fc:	00000000 	udf	#0
ffff0100:	ffff0800 	.inst	0xffff0800 ; undefined
ffff0104:	00000000 	udf	#0
ffff0108:	ff090004 	.inst	0xff090004 ; undefined
ffff010c:	00000000 	udf	#0
ffff0110:	ff090008 	.inst	0xff090008 ; undefined
ffff0114:	00000000 	udf	#0
ffff0118:	deadbeaf 	.inst	0xdeadbeaf ; undefined
ffff011c:	00000000 	udf	#0
ffff0120:	ff440094 	.inst	0xff440094 ; undefined
ffff0124:	00000000 	udf	#0
ffff0128:	ff0d0000 	.inst	0xff0d0000 ; undefined
ffff012c:	00000000 	udf	#0
ffff0130:	ff0d0180 	.inst	0xff0d0180 ; undefined
ffff0134:	00000000 	udf	#0
ffff0138:	d10103ff 	sub	sp, sp, #0x40
ffff013c:	a9037bfd 	stp	x29, x30, [sp, #48]
ffff0140:	9100c3fd 	add	x29, sp, #0x30
ffff0144:	a9025ff6 	stp	x22, x23, [sp, #32]
ffff0148:	a90157f4 	stp	x20, x21, [sp, #16]
ffff014c:	f90007f3 	str	x19, [sp, #8]
ffff0150:	aa0103f3 	mov	x19, x1
ffff0154:	aa0003f4 	mov	x20, x0
ffff0158:	b90007ff 	str	wzr, [sp, #4]
ffff015c:	52800020 	mov	w0, #0x1                   	// #1
ffff0160:	b4000353 	cbz	x19, 0xffff01c8
ffff0164:	52800275 	mov	w21, #0x13                  	// #19
ffff0168:	7100069f 	cmp	w20, #0x1
ffff016c:	54000080 	b.eq	0xffff017c  // b.none
ffff0170:	71000a9f 	cmp	w20, #0x2
ffff0174:	540002a1 	b.ne	0xffff01c8  // b.any
ffff0178:	52800295 	mov	w21, #0x14                  	// #20
ffff017c:	2a1f03f6 	mov	w22, wzr
ffff0180:	2a1f03f7 	mov	w23, wzr
ffff0184:	0b3542e1 	add	w1, w23, w21, uxtw
ffff0188:	910013e0 	add	x0, sp, #0x4
ffff018c:	52800022 	mov	w2, #0x1                   	// #1
ffff0190:	94000f95 	bl	0xffff3fe4
ffff0194:	b94007e0 	ldr	w0, [sp, #4]
ffff0198:	2a1f03e1 	mov	w1, wzr
ffff019c:	340000a0 	cbz	w0, 0xffff01b0
ffff01a0:	51000402 	sub	w2, w0, #0x1
ffff01a4:	0a000040 	and	w0, w2, w0
ffff01a8:	11000421 	add	w1, w1, #0x1
ffff01ac:	35ffffa0 	cbnz	w0, 0xffff01a0
ffff01b0:	0b364036 	add	w22, w1, w22, uxtw
ffff01b4:	110006f7 	add	w23, w23, #0x1
ffff01b8:	6b3442ff 	cmp	w23, w20, uxtw
ffff01bc:	54fffe41 	b.ne	0xffff0184  // b.any
ffff01c0:	2a1f03e0 	mov	w0, wzr
ffff01c4:	b9000276 	str	w22, [x19]
ffff01c8:	f94007f3 	ldr	x19, [sp, #8]
ffff01cc:	a94157f4 	ldp	x20, x21, [sp, #16]
ffff01d0:	a9425ff6 	ldp	x22, x23, [sp, #32]
ffff01d4:	a9437bfd 	ldp	x29, x30, [sp, #48]
ffff01d8:	910103ff 	add	sp, sp, #0x40
ffff01dc:	d65f03c0 	ret
ffff01e0:	d10143ff 	sub	sp, sp, #0x50
ffff01e4:	a9047bfd 	stp	x29, x30, [sp, #64]
ffff01e8:	910103fd 	add	x29, sp, #0x40
ffff01ec:	a90367f8 	stp	x24, x25, [sp, #48]
ffff01f0:	a9025ff6 	stp	x22, x23, [sp, #32]
ffff01f4:	a90157f4 	stp	x20, x21, [sp, #16]
ffff01f8:	f90007f3 	str	x19, [sp, #8]
ffff01fc:	90ff8500 	adrp	x0, 0xff090000
ffff0200:	91007001 	add	x1, x0, #0x1c
ffff0204:	39403022 	ldrb	w2, [x1, #12]
ffff0208:	34000442 	cbz	w2, 0xffff0290
ffff020c:	b9400822 	ldr	w2, [x1, #8]
ffff0210:	b9400434 	ldr	w20, [x1, #4]
ffff0214:	6b34405f 	cmp	w2, w20, uxtw
ffff0218:	54000408 	b.hi	0xffff0298  // b.pmore
ffff021c:	540003a0 	b.eq	0xffff0290  // b.none
ffff0220:	b9401c00 	ldr	w0, [x0, #28]
ffff0224:	7100081f 	cmp	w0, #0x2
ffff0228:	540000c1 	b.ne	0xffff0240  // b.any
ffff022c:	7100fe9f 	cmp	w20, #0x3f
ffff0230:	54000348 	b.hi	0xffff0298  // b.pmore
ffff0234:	52800295 	mov	w21, #0x14                  	// #20
ffff0238:	52800053 	mov	w19, #0x2                   	// #2
ffff023c:	14000007 	b	0xffff0258
ffff0240:	7100041f 	cmp	w0, #0x1
ffff0244:	540002a1 	b.ne	0xffff0298  // b.any
ffff0248:	52800275 	mov	w21, #0x13                  	// #19
ffff024c:	52800033 	mov	w19, #0x1                   	// #1
ffff0250:	71007e9f 	cmp	w20, #0x1f
ffff0254:	54000248 	b.hi	0xffff029c  // b.pmore
ffff0258:	2a1f03f6 	mov	w22, wzr
ffff025c:	52800417 	mov	w23, #0x20                  	// #32
ffff0260:	12800018 	mov	w24, #0xffffffff            	// #-1
ffff0264:	7100829f 	cmp	w20, #0x20
ffff0268:	1a973299 	csel	w25, w20, w23, cc  // cc = lo, ul, last
ffff026c:	4b3942e0 	sub	w0, w23, w25, uxtw
ffff0270:	1ac02701 	lsr	w1, w24, w0
ffff0274:	0b3642a0 	add	w0, w21, w22, uxtw
ffff0278:	94000fe3 	bl	0xffff4204
ffff027c:	350000e0 	cbnz	w0, 0xffff0298
ffff0280:	4b394294 	sub	w20, w20, w25, uxtw
ffff0284:	110006d6 	add	w22, w22, #0x1
ffff0288:	6b3342df 	cmp	w22, w19, uxtw
ffff028c:	54fffec3 	b.cc	0xffff0264  // b.lo, b.ul, b.last
ffff0290:	2a1f03f3 	mov	w19, wzr
ffff0294:	14000002 	b	0xffff029c
ffff0298:	52800033 	mov	w19, #0x1                   	// #1
ffff029c:	aa1303e0 	mov	x0, x19
ffff02a0:	f94007f3 	ldr	x19, [sp, #8]
ffff02a4:	a94157f4 	ldp	x20, x21, [sp, #16]
ffff02a8:	a9425ff6 	ldp	x22, x23, [sp, #32]
ffff02ac:	a94367f8 	ldp	x24, x25, [sp, #48]
ffff02b0:	a9447bfd 	ldp	x29, x30, [sp, #64]
ffff02b4:	910143ff 	add	sp, sp, #0x50
ffff02b8:	d65f03c0 	ret
ffff02bc:	d10603ff 	sub	sp, sp, #0x180
ffff02c0:	a9177bfd 	stp	x29, x30, [sp, #368]
ffff02c4:	9105c3fd 	add	x29, sp, #0x170
ffff02c8:	a9165ff6 	stp	x22, x23, [sp, #352]
ffff02cc:	a91557f4 	stp	x20, x21, [sp, #336]
ffff02d0:	f900a7f3 	str	x19, [sp, #328]
ffff02d4:	aa0003f4 	mov	x20, x0
ffff02d8:	b90007ff 	str	wzr, [sp, #4]
ffff02dc:	b9400280 	ldr	w0, [x20]
ffff02e0:	90000001 	adrp	x1, 0xffff0000
ffff02e4:	b9474021 	ldr	w1, [x1, #1856]
ffff02e8:	52800033 	mov	w19, #0x1                   	// #1
ffff02ec:	6b21401f 	cmp	w0, w1, uxtw
ffff02f0:	54000b61 	b.ne	0xffff045c  // b.any
ffff02f4:	90ff8516 	adrp	x22, 0xff090000
ffff02f8:	b9001edf 	str	wzr, [x22, #28]
ffff02fc:	910072d7 	add	x23, x22, #0x1c
ffff0300:	b9000eff 	str	wzr, [x23, #12]
ffff0304:	b9000aff 	str	wzr, [x23, #8]
ffff0308:	b90006ff 	str	wzr, [x23, #4]
ffff030c:	b9400a80 	ldr	w0, [x20, #8]
ffff0310:	364002c0 	tbz	w0, #8, 0xffff0368
ffff0314:	79402281 	ldrh	w1, [x20, #16]
ffff0318:	79402682 	ldrh	w2, [x20, #18]
ffff031c:	6b22403f 	cmp	w1, w2, uxtw
ffff0320:	540009e3 	b.cc	0xffff045c  // b.lo, b.ul, b.last
ffff0324:	53092c15 	ubfx	w21, w0, #9, #3
ffff0328:	910013e1 	add	x1, sp, #0x4
ffff032c:	aa1503e0 	mov	x0, x21
ffff0330:	97ffff82 	bl	0xffff0138
ffff0334:	35000940 	cbnz	w0, 0xffff045c
ffff0338:	79402281 	ldrh	w1, [x20, #16]
ffff033c:	b94007e0 	ldr	w0, [sp, #4]
ffff0340:	6b20403f 	cmp	w1, w0, uxtw
ffff0344:	540008c3 	b.cc	0xffff045c  // b.lo, b.ul, b.last
ffff0348:	39402681 	ldrb	w1, [x20, #9]
ffff034c:	372000e1 	tbnz	w1, #4, 0xffff0368
ffff0350:	79402681 	ldrh	w1, [x20, #18]
ffff0354:	b90006e1 	str	w1, [x23, #4]
ffff0358:	b9000ae0 	str	w0, [x23, #8]
ffff035c:	b9001ed5 	str	w21, [x22, #28]
ffff0360:	52800020 	mov	w0, #0x1                   	// #1
ffff0364:	390032e0 	strb	w0, [x23, #12]
ffff0368:	90ff8500 	adrp	x0, 0xff090000
ffff036c:	b9401800 	ldr	w0, [x0, #24]
ffff0370:	91008295 	add	x21, x20, #0x20
ffff0374:	7100041f 	cmp	w0, #0x1
ffff0378:	540003a1 	b.ne	0xffff03ec  // b.any
ffff037c:	910023f6 	add	x22, sp, #0x8
ffff0380:	52800802 	mov	w2, #0x40                  	// #64
ffff0384:	aa1603e0 	mov	x0, x22
ffff0388:	aa1f03e1 	mov	x1, xzr
ffff038c:	94000478 	bl	0xffff156c
ffff0390:	d2802002 	mov	x2, #0x100                 	// #256
ffff0394:	aa1603e0 	mov	x0, x22
ffff0398:	aa1503e1 	mov	x1, x21
ffff039c:	94000fca 	bl	0xffff42c4
ffff03a0:	350005e0 	cbnz	w0, 0xffff045c
ffff03a4:	90ff8517 	adrp	x23, 0xff090000
ffff03a8:	b9402ee2 	ldr	w2, [x23, #44]
ffff03ac:	91048295 	add	x21, x20, #0x120
ffff03b0:	51000440 	sub	w0, w2, #0x1
ffff03b4:	7101001f 	cmp	w0, #0x40
ffff03b8:	54000063 	b.cc	0xffff03c4  // b.lo, b.ul, b.last
ffff03bc:	52800802 	mov	w2, #0x40                  	// #64
ffff03c0:	b9002ee2 	str	w2, [x23, #44]
ffff03c4:	910023f6 	add	x22, sp, #0x8
ffff03c8:	52800801 	mov	w1, #0x40                  	// #64
ffff03cc:	aa1603e0 	mov	x0, x22
ffff03d0:	94000467 	bl	0xffff156c
ffff03d4:	b9402ee0 	ldr	w0, [x23, #44]
ffff03d8:	531e7400 	lsl	w0, w0, #2
ffff03dc:	53007c02 	lsr	w2, w0, #0
ffff03e0:	aa1603e0 	mov	x0, x22
ffff03e4:	aa1503e1 	mov	x1, x21
ffff03e8:	14000011 	b	0xffff042c
ffff03ec:	910423f6 	add	x22, sp, #0x108
ffff03f0:	52800021 	mov	w1, #0x1                   	// #1
ffff03f4:	52800102 	mov	w2, #0x8                   	// #8
ffff03f8:	aa1603e0 	mov	x0, x22
ffff03fc:	94000efa 	bl	0xffff3fe4
ffff0400:	52804000 	mov	w0, #0x200                 	// #512
ffff0404:	940001e0 	bl	0xffff0b84
ffff0408:	52804001 	mov	w1, #0x200                 	// #512
ffff040c:	aa1503e0 	mov	x0, x21
ffff0410:	940001f1 	bl	0xffff0bd4
ffff0414:	9104a3f5 	add	x21, sp, #0x128
ffff0418:	aa1503e0 	mov	x0, x21
ffff041c:	94000201 	bl	0xffff0c20
ffff0420:	d2800402 	mov	x2, #0x20                  	// #32
ffff0424:	aa1503e0 	mov	x0, x21
ffff0428:	aa1603e1 	mov	x1, x22
ffff042c:	94000fa6 	bl	0xffff42c4
ffff0430:	35000160 	cbnz	w0, 0xffff045c
ffff0434:	b9400e80 	ldr	w0, [x20, #12]
ffff0438:	321e3fe1 	mov	w1, #0x3fffc               	// #262140
ffff043c:	0a000821 	and	w1, w1, w0, lsl #2
ffff0440:	711c003f 	cmp	w1, #0x700
ffff0444:	540000c8 	b.hi	0xffff045c  // b.pmore
ffff0448:	aa1403e0 	mov	x0, x20
ffff044c:	940002d9 	bl	0xffff0fb0
ffff0450:	7100001f 	cmp	w0, #0x0
ffff0454:	1a9f07e0 	cset	w0, ne  // ne = any
ffff0458:	12000013 	and	w19, w0, #0x1
ffff045c:	aa1303e0 	mov	x0, x19
ffff0460:	f940a7f3 	ldr	x19, [sp, #328]
ffff0464:	a95557f4 	ldp	x20, x21, [sp, #336]
ffff0468:	a9565ff6 	ldp	x22, x23, [sp, #352]
ffff046c:	a9577bfd 	ldp	x29, x30, [sp, #368]
ffff0470:	910603ff 	add	sp, sp, #0x180
ffff0474:	d65f03c0 	ret
ffff0478:	2a1f03e1 	mov	w1, wzr
ffff047c:	2a1f03e2 	mov	w2, wzr
ffff0480:	52000c00 	eor	w0, w0, #0xf
ffff0484:	52800023 	mov	w3, #0x1                   	// #1
ffff0488:	1ac22064 	lsl	w4, w3, w2
ffff048c:	6a00009f 	tst	w4, w0
ffff0490:	1a9f07e4 	cset	w4, ne  // ne = any
ffff0494:	12000084 	and	w4, w4, #0x1
ffff0498:	0b214081 	add	w1, w4, w1, uxtw
ffff049c:	11000442 	add	w2, w2, #0x1
ffff04a0:	7100105f 	cmp	w2, #0x4
ffff04a4:	54ffff21 	b.ne	0xffff0488  // b.any
ffff04a8:	7100083f 	cmp	w1, #0x2
ffff04ac:	1a9fa7e0 	cset	w0, lt  // lt = tstop
ffff04b0:	92400000 	and	x0, x0, #0x1
ffff04b4:	d65f03c0 	ret
ffff04b8:	d100c3ff 	sub	sp, sp, #0x30
ffff04bc:	a9027bfd 	stp	x29, x30, [sp, #32]
ffff04c0:	910083fd 	add	x29, sp, #0x20
ffff04c4:	a90153f3 	stp	x19, x20, [sp, #16]
ffff04c8:	b9000fff 	str	wzr, [sp, #12]
ffff04cc:	90ff8513 	adrp	x19, 0xff090000
ffff04d0:	b9001a7f 	str	wzr, [x19, #24]
ffff04d4:	d2bfe460 	mov	x0, #0xff230000            	// #4280483840
ffff04d8:	b9400001 	ldr	w1, [x0]
ffff04dc:	90000002 	adrp	x2, 0xffff0000
ffff04e0:	b9474442 	ldr	w2, [x2, #1860]
ffff04e4:	321d0021 	orr	w1, w1, #0x8
ffff04e8:	b9000001 	str	w1, [x0]
ffff04ec:	b9400040 	ldr	w0, [x2]
ffff04f0:	321d0000 	orr	w0, w0, #0x8
ffff04f4:	b9000040 	str	w0, [x2]
ffff04f8:	52807d00 	mov	w0, #0x3e8                 	// #1000
ffff04fc:	9400006d 	bl	0xffff06b0
ffff0500:	52800034 	mov	w20, #0x1                   	// #1
ffff0504:	910033e0 	add	x0, sp, #0xc
ffff0508:	52800022 	mov	w2, #0x1                   	// #1
ffff050c:	aa1f03e1 	mov	x1, xzr
ffff0510:	94000eb5 	bl	0xffff3fe4
ffff0514:	b9400fe0 	ldr	w0, [sp, #12]
ffff0518:	2a1f03e1 	mov	w1, wzr
ffff051c:	2a1f03e2 	mov	w2, wzr
ffff0520:	528001e3 	mov	w3, #0xf                   	// #15
ffff0524:	0a200063 	bic	w3, w3, w0
ffff0528:	1ac22284 	lsl	w4, w20, w2
ffff052c:	6a03009f 	tst	w4, w3
ffff0530:	1a9f07e4 	cset	w4, ne  // ne = any
ffff0534:	12000084 	and	w4, w4, #0x1
ffff0538:	0b214081 	add	w1, w4, w1, uxtw
ffff053c:	11000442 	add	w2, w2, #0x1
ffff0540:	7100105f 	cmp	w2, #0x4
ffff0544:	54ffff21 	b.ne	0xffff0528  // b.any
ffff0548:	7100043f 	cmp	w1, #0x1
ffff054c:	540004cc 	b.gt	0xffff05e4
ffff0550:	94000413 	bl	0xffff159c
ffff0554:	2a1f03e0 	mov	w0, wzr
ffff0558:	2a1f03e1 	mov	w1, wzr
ffff055c:	b9400fe3 	ldr	w3, [sp, #12]
ffff0560:	52800022 	mov	w2, #0x1                   	// #1
ffff0564:	b9001a62 	str	w2, [x19, #24]
ffff0568:	528001e4 	mov	w4, #0xf                   	// #15
ffff056c:	0a632083 	bic	w3, w4, w3, lsr #8
ffff0570:	1ac12044 	lsl	w4, w2, w1
ffff0574:	6a03009f 	tst	w4, w3
ffff0578:	1a9f07e4 	cset	w4, ne  // ne = any
ffff057c:	12000084 	and	w4, w4, #0x1
ffff0580:	0b204080 	add	w0, w4, w0, uxtw
ffff0584:	11000421 	add	w1, w1, #0x1
ffff0588:	7100103f 	cmp	w1, #0x4
ffff058c:	54ffff21 	b.ne	0xffff0570  // b.any
ffff0590:	7100041f 	cmp	w0, #0x1
ffff0594:	5400008c 	b.gt	0xffff05a4
ffff0598:	90ff8500 	adrp	x0, 0xff090000
ffff059c:	52800021 	mov	w1, #0x1                   	// #1
ffff05a0:	b900ec01 	str	w1, [x0, #236]
ffff05a4:	b9000fff 	str	wzr, [sp, #12]
ffff05a8:	52800033 	mov	w19, #0x1                   	// #1
ffff05ac:	910033e0 	add	x0, sp, #0xc
ffff05b0:	52801001 	mov	w1, #0x80                  	// #128
ffff05b4:	52800022 	mov	w2, #0x1                   	// #1
ffff05b8:	940003ed 	bl	0xffff156c
ffff05bc:	b9400fe0 	ldr	w0, [sp, #12]
ffff05c0:	12001c01 	and	w1, w0, #0xff
ffff05c4:	7103fc3f 	cmp	w1, #0xff
ffff05c8:	54000341 	b.ne	0xffff0630  // b.any
ffff05cc:	90ff8501 	adrp	x1, 0xff090000
ffff05d0:	b9000c33 	str	w19, [x1, #12]
ffff05d4:	53083c00 	ubfx	w0, w0, #8, #8
ffff05d8:	90ff8501 	adrp	x1, 0xff090000
ffff05dc:	b9002c20 	str	w0, [x1, #44]
ffff05e0:	14000018 	b	0xffff0640
ffff05e4:	2a1f03e1 	mov	w1, wzr
ffff05e8:	2a1f03e2 	mov	w2, wzr
ffff05ec:	528001e3 	mov	w3, #0xf                   	// #15
ffff05f0:	0a601060 	bic	w0, w3, w0, lsr #4
ffff05f4:	52800023 	mov	w3, #0x1                   	// #1
ffff05f8:	1ac22064 	lsl	w4, w3, w2
ffff05fc:	6a00009f 	tst	w4, w0
ffff0600:	1a9f07e4 	cset	w4, ne  // ne = any
ffff0604:	12000084 	and	w4, w4, #0x1
ffff0608:	0b214081 	add	w1, w4, w1, uxtw
ffff060c:	11000442 	add	w2, w2, #0x1
ffff0610:	7100105f 	cmp	w2, #0x4
ffff0614:	54ffff21 	b.ne	0xffff05f8  // b.any
ffff0618:	7100043f 	cmp	w1, #0x1
ffff061c:	540000ac 	b.gt	0xffff0630
ffff0620:	90ff8500 	adrp	x0, 0xff090000
ffff0624:	52800021 	mov	w1, #0x1                   	// #1
ffff0628:	b9000c01 	str	w1, [x0, #12]
ffff062c:	14000005 	b	0xffff0640
ffff0630:	90ff8500 	adrp	x0, 0xff090000
ffff0634:	b9400c00 	ldr	w0, [x0, #12]
ffff0638:	7100041f 	cmp	w0, #0x1
ffff063c:	54000061 	b.ne	0xffff0648  // b.any
ffff0640:	94000291 	bl	0xffff1084
ffff0644:	14000004 	b	0xffff0654
ffff0648:	d2bfe1a0 	mov	x0, #0xff0d0000            	// #4279042048
ffff064c:	32008fe1 	mov	w1, #0xf000f               	// #983055
ffff0650:	b9000001 	str	w1, [x0]
ffff0654:	b9000fff 	str	wzr, [sp, #12]
ffff0658:	52800033 	mov	w19, #0x1                   	// #1
ffff065c:	910033e0 	add	x0, sp, #0xc
ffff0660:	528002e1 	mov	w1, #0x17                  	// #23
ffff0664:	52800022 	mov	w2, #0x1                   	// #1
ffff0668:	94000e5f 	bl	0xffff3fe4
ffff066c:	394033e0 	ldrb	w0, [sp, #12]
ffff0670:	7103fc1f 	cmp	w0, #0xff
ffff0674:	54000081 	b.ne	0xffff0684  // b.any
ffff0678:	90000000 	adrp	x0, 0xffff0000
ffff067c:	b9474800 	ldr	w0, [x0, #1864]
ffff0680:	b9000013 	str	w19, [x0]
ffff0684:	aa1f03e0 	mov	x0, xzr
ffff0688:	a94153f3 	ldp	x19, x20, [sp, #16]
ffff068c:	a9427bfd 	ldp	x29, x30, [sp, #32]
ffff0690:	9100c3ff 	add	sp, sp, #0x30
ffff0694:	d65f03c0 	ret
ffff0698:	90ff8500 	adrp	x0, 0xff090000
ffff069c:	b9400000 	ldr	w0, [x0]
ffff06a0:	d65f03c0 	ret
ffff06a4:	90ff8501 	adrp	x1, 0xff090000
ffff06a8:	b9000020 	str	w0, [x1]
ffff06ac:	d65f03c0 	ret
ffff06b0:	d10043ff 	sub	sp, sp, #0x10
ffff06b4:	a9007bfd 	stp	x29, x30, [sp]
ffff06b8:	910003fd 	mov	x29, sp
ffff06bc:	90ff8501 	adrp	x1, 0xff090000
ffff06c0:	b9400021 	ldr	w1, [x1]
ffff06c4:	1b007c20 	mul	w0, w1, w0
ffff06c8:	7100603f 	cmp	w1, #0x18
ffff06cc:	540000c1 	b.ne	0xffff06e4  // b.any
ffff06d0:	5283ffe1 	mov	w1, #0x1fff                	// #8191
ffff06d4:	52800ee2 	mov	w2, #0x77                  	// #119
ffff06d8:	1b020400 	madd	w0, w0, w2, w1
ffff06dc:	530d7c00 	lsr	w0, w0, #13
ffff06e0:	14000004 	b	0xffff06f0
ffff06e4:	528fffe1 	mov	w1, #0x7fff                	// #32767
ffff06e8:	0b001c20 	add	w0, w1, w0, lsl #7
ffff06ec:	530f7c00 	lsr	w0, w0, #15
ffff06f0:	34000040 	cbz	w0, 0xffff06f8
ffff06f4:	94000fb9 	bl	0xffff45d8
ffff06f8:	a9407bfd 	ldp	x29, x30, [sp]
ffff06fc:	910043ff 	add	sp, sp, #0x10
ffff0700:	d65f03c0 	ret
ffff0704:	d10083ff 	sub	sp, sp, #0x20
ffff0708:	a9017bfd 	stp	x29, x30, [sp, #16]
ffff070c:	910043fd 	add	x29, sp, #0x10
ffff0710:	f90007f3 	str	x19, [sp, #8]
ffff0714:	aa0003f3 	mov	x19, x0
ffff0718:	340000b3 	cbz	w19, 0xffff072c
ffff071c:	51000673 	sub	w19, w19, #0x1
ffff0720:	52807d00 	mov	w0, #0x3e8                 	// #1000
ffff0724:	97ffffe3 	bl	0xffff06b0
ffff0728:	35ffffb3 	cbnz	w19, 0xffff071c
ffff072c:	f94007f3 	ldr	x19, [sp, #8]
ffff0730:	a9417bfd 	ldp	x29, x30, [sp, #16]
ffff0734:	910083ff 	add	sp, sp, #0x20
ffff0738:	d65f03c0 	ret
ffff073c:	4b415352 	sub	w18, w26, w1, lsr #20
ffff0740:	4b415352 	sub	w18, w26, w1, lsr #20
ffff0744:	ff230004 	.inst	0xff230004 ; undefined
ffff0748:	ff0b0008 	.inst	0xff0b0008 ; undefined
ffff074c:	00000000 	udf	#0
ffff0750:	00000000 	udf	#0
ffff0754:	00000000 	udf	#0
ffff0758:	00000000 	udf	#0
ffff075c:	00000000 	udf	#0
ffff0760:	00000000 	udf	#0
ffff0764:	00000000 	udf	#0
ffff0768:	00000000 	udf	#0
ffff076c:	00000000 	udf	#0
ffff0770:	00000000 	udf	#0
ffff0774:	00000000 	udf	#0
ffff0778:	00000000 	udf	#0
ffff077c:	00000000 	udf	#0
ffff0780:	00000000 	udf	#0
ffff0784:	00000000 	udf	#0
ffff0788:	00000000 	udf	#0
ffff078c:	00000000 	udf	#0
ffff0790:	00000000 	udf	#0
ffff0794:	00000000 	udf	#0
ffff0798:	00000000 	udf	#0
ffff079c:	00000000 	udf	#0
ffff07a0:	00000000 	udf	#0
ffff07a4:	00000000 	udf	#0
ffff07a8:	00000000 	udf	#0
ffff07ac:	00000000 	udf	#0
ffff07b0:	00000000 	udf	#0
ffff07b4:	00000000 	udf	#0
ffff07b8:	00000000 	udf	#0
ffff07bc:	00000000 	udf	#0
ffff07c0:	00000000 	udf	#0
ffff07c4:	00000000 	udf	#0
ffff07c8:	00000000 	udf	#0
ffff07cc:	00000000 	udf	#0
ffff07d0:	00000000 	udf	#0
ffff07d4:	00000000 	udf	#0
ffff07d8:	00000000 	udf	#0
ffff07dc:	00000000 	udf	#0
ffff07e0:	00000000 	udf	#0
ffff07e4:	00000000 	udf	#0
ffff07e8:	00000000 	udf	#0
ffff07ec:	00000000 	udf	#0
ffff07f0:	00000000 	udf	#0
ffff07f4:	00000000 	udf	#0
ffff07f8:	00000000 	udf	#0
ffff07fc:	00000000 	udf	#0
ffff0800:	14000000 	b	0xffff0800
ffff0804:	d503201f 	nop
ffff0808:	d503201f 	nop
ffff080c:	d503201f 	nop
ffff0810:	d503201f 	nop
ffff0814:	d503201f 	nop
ffff0818:	d503201f 	nop
ffff081c:	d503201f 	nop
ffff0820:	d503201f 	nop
ffff0824:	d503201f 	nop
ffff0828:	d503201f 	nop
ffff082c:	d503201f 	nop
ffff0830:	d503201f 	nop
ffff0834:	d503201f 	nop
ffff0838:	d503201f 	nop
ffff083c:	d503201f 	nop
ffff0840:	d503201f 	nop
ffff0844:	d503201f 	nop
ffff0848:	d503201f 	nop
ffff084c:	d503201f 	nop
ffff0850:	d503201f 	nop
ffff0854:	d503201f 	nop
ffff0858:	d503201f 	nop
ffff085c:	d503201f 	nop
ffff0860:	d503201f 	nop
ffff0864:	d503201f 	nop
ffff0868:	d503201f 	nop
ffff086c:	d503201f 	nop
ffff0870:	d503201f 	nop
ffff0874:	d503201f 	nop
ffff0878:	d503201f 	nop
ffff087c:	d503201f 	nop
ffff0880:	14000000 	b	0xffff0880
ffff0884:	d503201f 	nop
ffff0888:	d503201f 	nop
ffff088c:	d503201f 	nop
ffff0890:	d503201f 	nop
ffff0894:	d503201f 	nop
ffff0898:	d503201f 	nop
ffff089c:	d503201f 	nop
ffff08a0:	d503201f 	nop
ffff08a4:	d503201f 	nop
ffff08a8:	d503201f 	nop
ffff08ac:	d503201f 	nop
ffff08b0:	d503201f 	nop
ffff08b4:	d503201f 	nop
ffff08b8:	d503201f 	nop
ffff08bc:	d503201f 	nop
ffff08c0:	d503201f 	nop
ffff08c4:	d503201f 	nop
ffff08c8:	d503201f 	nop
ffff08cc:	d503201f 	nop
ffff08d0:	d503201f 	nop
ffff08d4:	d503201f 	nop
ffff08d8:	d503201f 	nop
ffff08dc:	d503201f 	nop
ffff08e0:	d503201f 	nop
ffff08e4:	d503201f 	nop
ffff08e8:	d503201f 	nop
ffff08ec:	d503201f 	nop
ffff08f0:	d503201f 	nop
ffff08f4:	d503201f 	nop
ffff08f8:	d503201f 	nop
ffff08fc:	d503201f 	nop
ffff0900:	14000000 	b	0xffff0900
ffff0904:	d503201f 	nop
ffff0908:	d503201f 	nop
ffff090c:	d503201f 	nop
ffff0910:	d503201f 	nop
ffff0914:	d503201f 	nop
ffff0918:	d503201f 	nop
ffff091c:	d503201f 	nop
ffff0920:	d503201f 	nop
ffff0924:	d503201f 	nop
ffff0928:	d503201f 	nop
ffff092c:	d503201f 	nop
ffff0930:	d503201f 	nop
ffff0934:	d503201f 	nop
ffff0938:	d503201f 	nop
ffff093c:	d503201f 	nop
ffff0940:	d503201f 	nop
ffff0944:	d503201f 	nop
ffff0948:	d503201f 	nop
ffff094c:	d503201f 	nop
ffff0950:	d503201f 	nop
ffff0954:	d503201f 	nop
ffff0958:	d503201f 	nop
ffff095c:	d503201f 	nop
ffff0960:	d503201f 	nop
ffff0964:	d503201f 	nop
ffff0968:	d503201f 	nop
ffff096c:	d503201f 	nop
ffff0970:	d503201f 	nop
ffff0974:	d503201f 	nop
ffff0978:	d503201f 	nop
ffff097c:	d503201f 	nop
ffff0980:	14000000 	b	0xffff0980
ffff0984:	d503201f 	nop
ffff0988:	d503201f 	nop
ffff098c:	d503201f 	nop
ffff0990:	d503201f 	nop
ffff0994:	d503201f 	nop
ffff0998:	d503201f 	nop
ffff099c:	d503201f 	nop
ffff09a0:	d503201f 	nop
ffff09a4:	d503201f 	nop
ffff09a8:	d503201f 	nop
ffff09ac:	d503201f 	nop
ffff09b0:	d503201f 	nop
ffff09b4:	d503201f 	nop
ffff09b8:	d503201f 	nop
ffff09bc:	d503201f 	nop
ffff09c0:	d503201f 	nop
ffff09c4:	d503201f 	nop
ffff09c8:	d503201f 	nop
ffff09cc:	d503201f 	nop
ffff09d0:	d503201f 	nop
ffff09d4:	d503201f 	nop
ffff09d8:	d503201f 	nop
ffff09dc:	d503201f 	nop
ffff09e0:	d503201f 	nop
ffff09e4:	d503201f 	nop
ffff09e8:	d503201f 	nop
ffff09ec:	d503201f 	nop
ffff09f0:	d503201f 	nop
ffff09f4:	d503201f 	nop
ffff09f8:	d503201f 	nop
ffff09fc:	d503201f 	nop
ffff0a00:	f81f0fe0 	str	x0, [sp, #-16]!
ffff0a04:	d53e4020 	mrs	x0, elr_el3
ffff0a08:	91001000 	add	x0, x0, #0x4
ffff0a0c:	d51e4020 	msr	elr_el3, x0
ffff0a10:	f84107e0 	ldr	x0, [sp], #16
ffff0a14:	d69f03e0 	eret
ffff0a18:	d503201f 	nop
ffff0a1c:	d503201f 	nop
ffff0a20:	d503201f 	nop
ffff0a24:	d503201f 	nop
ffff0a28:	d503201f 	nop
ffff0a2c:	d503201f 	nop
ffff0a30:	d503201f 	nop
ffff0a34:	d503201f 	nop
ffff0a38:	d503201f 	nop
ffff0a3c:	d503201f 	nop
ffff0a40:	d503201f 	nop
ffff0a44:	d503201f 	nop
ffff0a48:	d503201f 	nop
ffff0a4c:	d503201f 	nop
ffff0a50:	d503201f 	nop
ffff0a54:	d503201f 	nop
ffff0a58:	d503201f 	nop
ffff0a5c:	d503201f 	nop
ffff0a60:	d503201f 	nop
ffff0a64:	d503201f 	nop
ffff0a68:	d503201f 	nop
ffff0a6c:	d503201f 	nop
ffff0a70:	d503201f 	nop
ffff0a74:	d503201f 	nop
ffff0a78:	d503201f 	nop
ffff0a7c:	d503201f 	nop
ffff0a80:	a9bf07e0 	stp	x0, x1, [sp, #-16]!
ffff0a84:	a9bf0fe2 	stp	x2, x3, [sp, #-16]!
ffff0a88:	a9bf17e4 	stp	x4, x5, [sp, #-16]!
ffff0a8c:	a9bf1fe6 	stp	x6, x7, [sp, #-16]!
ffff0a90:	a9bf27e8 	stp	x8, x9, [sp, #-16]!
ffff0a94:	a9bf2fea 	stp	x10, x11, [sp, #-16]!
ffff0a98:	a9bf37ec 	stp	x12, x13, [sp, #-16]!
ffff0a9c:	a9bf3fee 	stp	x14, x15, [sp, #-16]!
ffff0aa0:	a9bf47f0 	stp	x16, x17, [sp, #-16]!
ffff0aa4:	a9bf7bf2 	stp	x18, x30, [sp, #-16]!
ffff0aa8:	94000a63 	bl	0xffff3434
ffff0aac:	a8c17bf2 	ldp	x18, x30, [sp], #16
ffff0ab0:	a8c147f0 	ldp	x16, x17, [sp], #16
ffff0ab4:	a8c13fee 	ldp	x14, x15, [sp], #16
ffff0ab8:	a8c137ec 	ldp	x12, x13, [sp], #16
ffff0abc:	a8c12fea 	ldp	x10, x11, [sp], #16
ffff0ac0:	a8c127e8 	ldp	x8, x9, [sp], #16
ffff0ac4:	a8c11fe6 	ldp	x6, x7, [sp], #16
ffff0ac8:	a8c117e4 	ldp	x4, x5, [sp], #16
ffff0acc:	a8c10fe2 	ldp	x2, x3, [sp], #16
ffff0ad0:	a8c107e0 	ldp	x0, x1, [sp], #16
ffff0ad4:	d69f03e0 	eret
ffff0ad8:	d503201f 	nop
ffff0adc:	d503201f 	nop
ffff0ae0:	d503201f 	nop
ffff0ae4:	d503201f 	nop
ffff0ae8:	d503201f 	nop
ffff0aec:	d503201f 	nop
ffff0af0:	d503201f 	nop
ffff0af4:	d503201f 	nop
ffff0af8:	d503201f 	nop
ffff0afc:	d503201f 	nop
ffff0b00:	14000000 	b	0xffff0b00
ffff0b04:	d503201f 	nop
ffff0b08:	d503201f 	nop
ffff0b0c:	d503201f 	nop
ffff0b10:	d503201f 	nop
ffff0b14:	d503201f 	nop
ffff0b18:	d503201f 	nop
ffff0b1c:	d503201f 	nop
ffff0b20:	d503201f 	nop
ffff0b24:	d503201f 	nop
ffff0b28:	d503201f 	nop
ffff0b2c:	d503201f 	nop
ffff0b30:	d503201f 	nop
ffff0b34:	d503201f 	nop
ffff0b38:	d503201f 	nop
ffff0b3c:	d503201f 	nop
ffff0b40:	d503201f 	nop
ffff0b44:	d503201f 	nop
ffff0b48:	d503201f 	nop
ffff0b4c:	d503201f 	nop
ffff0b50:	d503201f 	nop
ffff0b54:	d503201f 	nop
ffff0b58:	d503201f 	nop
ffff0b5c:	d503201f 	nop
ffff0b60:	d503201f 	nop
ffff0b64:	d503201f 	nop
ffff0b68:	d503201f 	nop
ffff0b6c:	d503201f 	nop
ffff0b70:	d503201f 	nop
ffff0b74:	d503201f 	nop
ffff0b78:	d503201f 	nop
ffff0b7c:	d503201f 	nop
ffff0b80:	14000000 	b	0xffff0b80
ffff0b84:	90000021 	adrp	x1, 0xffff4000
ffff0b88:	b948e421 	ldr	w1, [x1, #2276]
ffff0b8c:	b9400022 	ldr	w2, [x1]
ffff0b90:	321b0042 	orr	w2, w2, #0x20
ffff0b94:	b9000022 	str	w2, [x1]
ffff0b98:	90000021 	adrp	x1, 0xffff4000
ffff0b9c:	b948e821 	ldr	w1, [x1, #2280]
ffff0ba0:	b9000020 	str	w0, [x1]
ffff0ba4:	90000020 	adrp	x0, 0xffff4000
ffff0ba8:	b948ec01 	ldr	w1, [x0, #2284]
ffff0bac:	90000020 	adrp	x0, 0xffff4000
ffff0bb0:	b948f000 	ldr	w0, [x0, #2288]
ffff0bb4:	52800142 	mov	w2, #0xa                   	// #10
ffff0bb8:	b9000022 	str	w2, [x1]
ffff0bbc:	320a83e1 	mov	w1, #0x400040              	// #4194368
ffff0bc0:	b9000001 	str	w1, [x0]
ffff0bc4:	b9400001 	ldr	w1, [x0]
ffff0bc8:	3737ffe1 	tbnz	w1, #6, 0xffff0bc4
ffff0bcc:	aa1f03e0 	mov	x0, xzr
ffff0bd0:	d65f03c0 	ret
ffff0bd4:	90000022 	adrp	x2, 0xffff4000
ffff0bd8:	b948f442 	ldr	w2, [x2, #2292]
ffff0bdc:	b9400043 	ldr	w3, [x2]
ffff0be0:	371fffa3 	tbnz	w3, #3, 0xffff0bd4
ffff0be4:	d2bfe0c3 	mov	x3, #0xff060000            	// #4278583296
ffff0be8:	52800204 	mov	w4, #0x10                  	// #16
ffff0bec:	b9000064 	str	w4, [x3]
ffff0bf0:	90000023 	adrp	x3, 0xffff4000
ffff0bf4:	b948f863 	ldr	w3, [x3, #2296]
ffff0bf8:	b9000060 	str	w0, [x3]
ffff0bfc:	11000c20 	add	w0, w1, #0x3
ffff0c00:	90000021 	adrp	x1, 0xffff4000
ffff0c04:	b948fc21 	ldr	w1, [x1, #2300]
ffff0c08:	53027c00 	lsr	w0, w0, #2
ffff0c0c:	b9000020 	str	w0, [x1]
ffff0c10:	320d83e0 	mov	w0, #0x80008               	// #524296
ffff0c14:	b9000040 	str	w0, [x2]
ffff0c18:	aa1f03e0 	mov	x0, xzr
ffff0c1c:	d65f03c0 	ret
ffff0c20:	90000021 	adrp	x1, 0xffff4000
ffff0c24:	b9490021 	ldr	w1, [x1, #2304]
ffff0c28:	b9400021 	ldr	w1, [x1]
ffff0c2c:	371fffa1 	tbnz	w1, #3, 0xffff0c20
ffff0c30:	90000021 	adrp	x1, 0xffff4000
ffff0c34:	b9490421 	ldr	w1, [x1, #2308]
ffff0c38:	b9400021 	ldr	w1, [x1]
ffff0c3c:	34ffffa1 	cbz	w1, 0xffff0c30
ffff0c40:	aa1f03e1 	mov	x1, xzr
ffff0c44:	90000022 	adrp	x2, 0xffff4000
ffff0c48:	b9490842 	ldr	w2, [x2, #2312]
ffff0c4c:	b8626822 	ldr	w2, [x1, x2]
ffff0c50:	b8216802 	str	w2, [x0, x1]
ffff0c54:	91001021 	add	x1, x1, #0x4
ffff0c58:	f100803f 	cmp	x1, #0x20
ffff0c5c:	54ffff41 	b.ne	0xffff0c44  // b.any
ffff0c60:	aa1f03e0 	mov	x0, xzr
ffff0c64:	d65f03c0 	ret
ffff0c68:	d100c3ff 	sub	sp, sp, #0x30
ffff0c6c:	a9027bfd 	stp	x29, x30, [sp, #32]
ffff0c70:	910083fd 	add	x29, sp, #0x20
ffff0c74:	90000021 	adrp	x1, 0xffff4000
ffff0c78:	b9490c21 	ldr	w1, [x1, #2316]
ffff0c7c:	b9400021 	ldr	w1, [x1]
ffff0c80:	371fffa1 	tbnz	w1, #3, 0xffff0c74
ffff0c84:	90000021 	adrp	x1, 0xffff4000
ffff0c88:	b9491021 	ldr	w1, [x1, #2320]
ffff0c8c:	b9400021 	ldr	w1, [x1]
ffff0c90:	34ffffa1 	cbz	w1, 0xffff0c84
ffff0c94:	aa1f03e1 	mov	x1, xzr
ffff0c98:	90000022 	adrp	x2, 0xffff4000
ffff0c9c:	b9491442 	ldr	w2, [x2, #2324]
ffff0ca0:	b8626822 	ldr	w2, [x1, x2]
ffff0ca4:	910003e3 	mov	x3, sp
ffff0ca8:	b8216862 	str	w2, [x3, x1]
ffff0cac:	91001021 	add	x1, x1, #0x4
ffff0cb0:	f100803f 	cmp	x1, #0x20
ffff0cb4:	54ffff21 	b.ne	0xffff0c98  // b.any
ffff0cb8:	910003e1 	mov	x1, sp
ffff0cbc:	d2800402 	mov	x2, #0x20                  	// #32
ffff0cc0:	94000d81 	bl	0xffff42c4
ffff0cc4:	a9427bfd 	ldp	x29, x30, [sp, #32]
ffff0cc8:	9100c3ff 	add	sp, sp, #0x30
ffff0ccc:	d65f03c0 	ret
ffff0cd0:	d100c3ff 	sub	sp, sp, #0x30
ffff0cd4:	a9027bfd 	stp	x29, x30, [sp, #32]
ffff0cd8:	910083fd 	add	x29, sp, #0x20
ffff0cdc:	a90157f4 	stp	x20, x21, [sp, #16]
ffff0ce0:	f90007f3 	str	x19, [sp, #8]
ffff0ce4:	aa0303f3 	mov	x19, x3
ffff0ce8:	aa0203f4 	mov	x20, x2
ffff0cec:	aa0103f5 	mov	x21, x1
ffff0cf0:	aa0003e1 	mov	x1, x0
ffff0cf4:	d2bfe0c0 	mov	x0, #0xff060000            	// #4278583296
ffff0cf8:	52800402 	mov	w2, #0x20                  	// #32
ffff0cfc:	b9000002 	str	w2, [x0]
ffff0d00:	90000020 	adrp	x0, 0xffff4000
ffff0d04:	b9491800 	ldr	w0, [x0, #2328]
ffff0d08:	d2802002 	mov	x2, #0x100                 	// #256
ffff0d0c:	94000da4 	bl	0xffff439c
ffff0d10:	90000020 	adrp	x0, 0xffff4000
ffff0d14:	b9491c00 	ldr	w0, [x0, #2332]
ffff0d18:	d2802002 	mov	x2, #0x100                 	// #256
ffff0d1c:	aa1503e1 	mov	x1, x21
ffff0d20:	94000d9f 	bl	0xffff439c
ffff0d24:	90000020 	adrp	x0, 0xffff4000
ffff0d28:	b9492000 	ldr	w0, [x0, #2336]
ffff0d2c:	d2802002 	mov	x2, #0x100                 	// #256
ffff0d30:	aa1403e1 	mov	x1, x20
ffff0d34:	94000d9a 	bl	0xffff439c
ffff0d38:	90000020 	adrp	x0, 0xffff4000
ffff0d3c:	b9492400 	ldr	w0, [x0, #2340]
ffff0d40:	d2802002 	mov	x2, #0x100                 	// #256
ffff0d44:	aa1303e1 	mov	x1, x19
ffff0d48:	94000d95 	bl	0xffff439c
ffff0d4c:	90000020 	adrp	x0, 0xffff4000
ffff0d50:	b9492800 	ldr	w0, [x0, #2344]
ffff0d54:	b9400001 	ldr	w1, [x0]
ffff0d58:	3727ffa1 	tbnz	w1, #4, 0xffff0d4c
ffff0d5c:	320c83e1 	mov	w1, #0x100010              	// #1048592
ffff0d60:	b9000001 	str	w1, [x0]
ffff0d64:	aa1f03e0 	mov	x0, xzr
ffff0d68:	f94007f3 	ldr	x19, [sp, #8]
ffff0d6c:	a94157f4 	ldp	x20, x21, [sp, #16]
ffff0d70:	a9427bfd 	ldp	x29, x30, [sp, #32]
ffff0d74:	9100c3ff 	add	sp, sp, #0x30
ffff0d78:	d65f03c0 	ret
ffff0d7c:	90000021 	adrp	x1, 0xffff4000
ffff0d80:	b9492c21 	ldr	w1, [x1, #2348]
ffff0d84:	b9400021 	ldr	w1, [x1]
ffff0d88:	3727ffa1 	tbnz	w1, #4, 0xffff0d7c
ffff0d8c:	aa1f03e1 	mov	x1, xzr
ffff0d90:	90000022 	adrp	x2, 0xffff4000
ffff0d94:	b9493042 	ldr	w2, [x2, #2352]
ffff0d98:	b8626822 	ldr	w2, [x1, x2]
ffff0d9c:	b8216802 	str	w2, [x0, x1]
ffff0da0:	91001021 	add	x1, x1, #0x4
ffff0da4:	f100803f 	cmp	x1, #0x20
ffff0da8:	54ffff41 	b.ne	0xffff0d90  // b.any
ffff0dac:	aa1f03e0 	mov	x0, xzr
ffff0db0:	d65f03c0 	ret
ffff0db4:	d10103ff 	sub	sp, sp, #0x40
ffff0db8:	a9037bfd 	stp	x29, x30, [sp, #48]
ffff0dbc:	9100c3fd 	add	x29, sp, #0x30
ffff0dc0:	a90263f7 	stp	x23, x24, [sp, #32]
ffff0dc4:	a9015bf5 	stp	x21, x22, [sp, #16]
ffff0dc8:	a90053f3 	stp	x19, x20, [sp]
ffff0dcc:	90000024 	adrp	x4, 0xffff4000
ffff0dd0:	b9493498 	ldr	w24, [x4, #2356]
ffff0dd4:	aa0303f3 	mov	x19, x3
ffff0dd8:	aa0203f4 	mov	x20, x2
ffff0ddc:	aa0103f5 	mov	x21, x1
ffff0de0:	aa0003f6 	mov	x22, x0
ffff0de4:	320c83f7 	mov	w23, #0x100010              	// #1048592
ffff0de8:	b9000317 	str	w23, [x24]
ffff0dec:	528000a0 	mov	w0, #0x5                   	// #5
ffff0df0:	97fffe30 	bl	0xffff06b0
ffff0df4:	52a00200 	mov	w0, #0x100000              	// #1048576
ffff0df8:	b9000300 	str	w0, [x24]
ffff0dfc:	90000020 	adrp	x0, 0xffff4000
ffff0e00:	b9493800 	ldr	w0, [x0, #2360]
ffff0e04:	52800041 	mov	w1, #0x2                   	// #2
ffff0e08:	b9000001 	str	w1, [x0]
ffff0e0c:	90000020 	adrp	x0, 0xffff4000
ffff0e10:	b9493c18 	ldr	w24, [x0, #2364]
ffff0e14:	320a87e0 	mov	w0, #0xc000c0              	// #12583104
ffff0e18:	b9000300 	str	w0, [x24]
ffff0e1c:	d2bfe0c0 	mov	x0, #0xff060000            	// #4278583296
ffff0e20:	12800001 	mov	w1, #0xffffffff            	// #-1
ffff0e24:	b9000001 	str	w1, [x0]
ffff0e28:	52801200 	mov	w0, #0x90                  	// #144
ffff0e2c:	b9400301 	ldr	w1, [x24]
ffff0e30:	0a000021 	and	w1, w1, w0
ffff0e34:	35ffffc1 	cbnz	w1, 0xffff0e2c
ffff0e38:	d2bfe0c0 	mov	x0, #0xff060000            	// #4278583296
ffff0e3c:	52800401 	mov	w1, #0x20                  	// #32
ffff0e40:	b9000001 	str	w1, [x0]
ffff0e44:	90000020 	adrp	x0, 0xffff4000
ffff0e48:	b9494000 	ldr	w0, [x0, #2368]
ffff0e4c:	d2802002 	mov	x2, #0x100                 	// #256
ffff0e50:	aa1603e1 	mov	x1, x22
ffff0e54:	94000d52 	bl	0xffff439c
ffff0e58:	90000020 	adrp	x0, 0xffff4000
ffff0e5c:	b9494400 	ldr	w0, [x0, #2372]
ffff0e60:	d2802002 	mov	x2, #0x100                 	// #256
ffff0e64:	aa1503e1 	mov	x1, x21
ffff0e68:	94000d4d 	bl	0xffff439c
ffff0e6c:	90000020 	adrp	x0, 0xffff4000
ffff0e70:	b9494800 	ldr	w0, [x0, #2376]
ffff0e74:	d2802002 	mov	x2, #0x100                 	// #256
ffff0e78:	aa1403e1 	mov	x1, x20
ffff0e7c:	94000d48 	bl	0xffff439c
ffff0e80:	90000020 	adrp	x0, 0xffff4000
ffff0e84:	b9494c00 	ldr	w0, [x0, #2380]
ffff0e88:	d2802002 	mov	x2, #0x100                 	// #256
ffff0e8c:	aa1303e1 	mov	x1, x19
ffff0e90:	94000d43 	bl	0xffff439c
ffff0e94:	b9400300 	ldr	w0, [x24]
ffff0e98:	3727ffe0 	tbnz	w0, #4, 0xffff0e94
ffff0e9c:	b9000317 	str	w23, [x24]
ffff0ea0:	aa1f03e0 	mov	x0, xzr
ffff0ea4:	a94053f3 	ldp	x19, x20, [sp]
ffff0ea8:	a9415bf5 	ldp	x21, x22, [sp, #16]
ffff0eac:	a94263f7 	ldp	x23, x24, [sp, #32]
ffff0eb0:	a9437bfd 	ldp	x29, x30, [sp, #48]
ffff0eb4:	910103ff 	add	sp, sp, #0x40
ffff0eb8:	d65f03c0 	ret
ffff0ebc:	d10143ff 	sub	sp, sp, #0x50
ffff0ec0:	a9047bfd 	stp	x29, x30, [sp, #64]
ffff0ec4:	910103fd 	add	x29, sp, #0x40
ffff0ec8:	90000020 	adrp	x0, 0xffff4000
ffff0ecc:	b9495000 	ldr	w0, [x0, #2384]
ffff0ed0:	b9400001 	ldr	w1, [x0]
ffff0ed4:	371fffa1 	tbnz	w1, #3, 0xffff0ec8
ffff0ed8:	90000021 	adrp	x1, 0xffff4000
ffff0edc:	b9495421 	ldr	w1, [x1, #2388]
ffff0ee0:	b9400021 	ldr	w1, [x1]
ffff0ee4:	34ffffa1 	cbz	w1, 0xffff0ed8
ffff0ee8:	aa1f03e1 	mov	x1, xzr
ffff0eec:	90000022 	adrp	x2, 0xffff4000
ffff0ef0:	b9495842 	ldr	w2, [x2, #2392]
ffff0ef4:	b8626822 	ldr	w2, [x1, x2]
ffff0ef8:	910083e3 	add	x3, sp, #0x20
ffff0efc:	b8216862 	str	w2, [x3, x1]
ffff0f00:	91001021 	add	x1, x1, #0x4
ffff0f04:	f100803f 	cmp	x1, #0x20
ffff0f08:	54ffff21 	b.ne	0xffff0eec  // b.any
ffff0f0c:	b9400001 	ldr	w1, [x0]
ffff0f10:	3727ffe1 	tbnz	w1, #4, 0xffff0f0c
ffff0f14:	90000020 	adrp	x0, 0xffff4000
ffff0f18:	b9495c00 	ldr	w0, [x0, #2396]
ffff0f1c:	b9400000 	ldr	w0, [x0]
ffff0f20:	90000021 	adrp	x1, 0xffff4000
ffff0f24:	b9496021 	ldr	w1, [x1, #2400]
ffff0f28:	b9400021 	ldr	w1, [x1]
ffff0f2c:	aa008021 	orr	x1, x1, x0, lsl #32
ffff0f30:	910003e0 	mov	x0, sp
ffff0f34:	f9000c01 	str	x1, [x0, #24]
ffff0f38:	90000021 	adrp	x1, 0xffff4000
ffff0f3c:	b9496421 	ldr	w1, [x1, #2404]
ffff0f40:	90000022 	adrp	x2, 0xffff4000
ffff0f44:	b9496842 	ldr	w2, [x2, #2408]
ffff0f48:	b9400021 	ldr	w1, [x1]
ffff0f4c:	b9400042 	ldr	w2, [x2]
ffff0f50:	aa018041 	orr	x1, x2, x1, lsl #32
ffff0f54:	f9000801 	str	x1, [x0, #16]
ffff0f58:	90000021 	adrp	x1, 0xffff4000
ffff0f5c:	b9496c21 	ldr	w1, [x1, #2412]
ffff0f60:	90000022 	adrp	x2, 0xffff4000
ffff0f64:	b9497042 	ldr	w2, [x2, #2416]
ffff0f68:	b9400021 	ldr	w1, [x1]
ffff0f6c:	b9400042 	ldr	w2, [x2]
ffff0f70:	90000023 	adrp	x3, 0xffff4000
ffff0f74:	b9497463 	ldr	w3, [x3, #2420]
ffff0f78:	90000024 	adrp	x4, 0xffff4000
ffff0f7c:	b9497884 	ldr	w4, [x4, #2424]
ffff0f80:	aa018041 	orr	x1, x2, x1, lsl #32
ffff0f84:	f9000401 	str	x1, [x0, #8]
ffff0f88:	b9400061 	ldr	w1, [x3]
ffff0f8c:	b9400082 	ldr	w2, [x4]
ffff0f90:	aa018041 	orr	x1, x2, x1, lsl #32
ffff0f94:	f90003e1 	str	x1, [sp]
ffff0f98:	910083e1 	add	x1, sp, #0x20
ffff0f9c:	d2800402 	mov	x2, #0x20                  	// #32
ffff0fa0:	94000cc9 	bl	0xffff42c4
ffff0fa4:	a9447bfd 	ldp	x29, x30, [sp, #64]
ffff0fa8:	910143ff 	add	sp, sp, #0x50
ffff0fac:	d65f03c0 	ret
ffff0fb0:	d10083ff 	sub	sp, sp, #0x20
ffff0fb4:	a9017bfd 	stp	x29, x30, [sp, #16]
ffff0fb8:	910043fd 	add	x29, sp, #0x10
ffff0fbc:	a90053f3 	stp	x19, x20, [sp]
ffff0fc0:	aa0103f3 	mov	x19, x1
ffff0fc4:	aa0003f4 	mov	x20, x0
ffff0fc8:	0b334280 	add	w0, w20, w19, uxtw
ffff0fcc:	53007c00 	lsr	w0, w0, #0
ffff0fd0:	91008281 	add	x1, x20, #0x20
ffff0fd4:	91048282 	add	x2, x20, #0x120
ffff0fd8:	91088283 	add	x3, x20, #0x220
ffff0fdc:	97ffff76 	bl	0xffff0db4
ffff0fe0:	90000020 	adrp	x0, 0xffff4000
ffff0fe4:	b9497c00 	ldr	w0, [x0, #2428]
ffff0fe8:	b9400001 	ldr	w1, [x0]
ffff0fec:	321b0021 	orr	w1, w1, #0x20
ffff0ff0:	b9000001 	str	w1, [x0]
ffff0ff4:	90000020 	adrp	x0, 0xffff4000
ffff0ff8:	b9498000 	ldr	w0, [x0, #2432]
ffff0ffc:	b9000013 	str	w19, [x0]
ffff1000:	f0000000 	adrp	x0, 0xffff4000
ffff1004:	b9498401 	ldr	w1, [x0, #2436]
ffff1008:	f0000000 	adrp	x0, 0xffff4000
ffff100c:	b9498800 	ldr	w0, [x0, #2440]
ffff1010:	52800142 	mov	w2, #0xa                   	// #10
ffff1014:	b9000022 	str	w2, [x1]
ffff1018:	320a83e1 	mov	w1, #0x400040              	// #4194368
ffff101c:	b9000001 	str	w1, [x0]
ffff1020:	b9400001 	ldr	w1, [x0]
ffff1024:	3737ffe1 	tbnz	w1, #6, 0xffff1020
ffff1028:	b9400001 	ldr	w1, [x0]
ffff102c:	371fffe1 	tbnz	w1, #3, 0xffff1028
ffff1030:	d2bfe0c1 	mov	x1, #0xff060000            	// #4278583296
ffff1034:	52800202 	mov	w2, #0x10                  	// #16
ffff1038:	b9000022 	str	w2, [x1]
ffff103c:	f0000001 	adrp	x1, 0xffff4000
ffff1040:	b9498c21 	ldr	w1, [x1, #2444]
ffff1044:	b9000034 	str	w20, [x1]
ffff1048:	11000e61 	add	w1, w19, #0x3
ffff104c:	f0000002 	adrp	x2, 0xffff4000
ffff1050:	b9499042 	ldr	w2, [x2, #2448]
ffff1054:	53027c21 	lsr	w1, w1, #2
ffff1058:	b9000041 	str	w1, [x2]
ffff105c:	320d83e1 	mov	w1, #0x80008               	// #524296
ffff1060:	b9000001 	str	w1, [x0]
ffff1064:	97ffff96 	bl	0xffff0ebc
ffff1068:	7100001f 	cmp	w0, #0x0
ffff106c:	1a9f07e0 	cset	w0, ne  // ne = any
ffff1070:	92400000 	and	x0, x0, #0x1
ffff1074:	a94053f3 	ldp	x19, x20, [sp]
ffff1078:	a9417bfd 	ldp	x29, x30, [sp, #16]
ffff107c:	910083ff 	add	sp, sp, #0x20
ffff1080:	d65f03c0 	ret
ffff1084:	f0000000 	adrp	x0, 0xffff4000
ffff1088:	b9499400 	ldr	w0, [x0, #2452]
ffff108c:	f0000001 	adrp	x1, 0xffff4000
ffff1090:	b9499821 	ldr	w1, [x1, #2456]
ffff1094:	f0000002 	adrp	x2, 0xffff4000
ffff1098:	b9499c42 	ldr	w2, [x2, #2460]
ffff109c:	b9000020 	str	w0, [x1]
ffff10a0:	52a80000 	mov	w0, #0x40000000            	// #1073741824
ffff10a4:	b9000040 	str	w0, [x2]
ffff10a8:	d65f03c0 	ret
ffff10ac:	d10303ff 	sub	sp, sp, #0xc0
ffff10b0:	a90b7bfd 	stp	x29, x30, [sp, #176]
ffff10b4:	9102c3fd 	add	x29, sp, #0xb0
ffff10b8:	a90a73fb 	stp	x27, x28, [sp, #160]
ffff10bc:	a9096bf9 	stp	x25, x26, [sp, #144]
ffff10c0:	a90863f7 	stp	x23, x24, [sp, #128]
ffff10c4:	a9075bf5 	stp	x21, x22, [sp, #112]
ffff10c8:	a90653f3 	stp	x19, x20, [sp, #96]
ffff10cc:	aa0203f4 	mov	x20, x2
ffff10d0:	f9000bf4 	str	x20, [sp, #16]
ffff10d4:	f9000fe0 	str	x0, [sp, #24]
ffff10d8:	531e7435 	lsl	w21, w1, #2
ffff10dc:	7107febf 	cmp	w21, #0x1ff
ffff10e0:	540000a8 	b.hi	0xffff10f4  // b.pmore
ffff10e4:	f0000000 	adrp	x0, 0xffff4000
ffff10e8:	b949a000 	ldr	w0, [x0, #2464]
ffff10ec:	52a04001 	mov	w1, #0x2000000             	// #33554432
ffff10f0:	14000007 	b	0xffff110c
ffff10f4:	510802a0 	sub	w0, w21, #0x200
ffff10f8:	7106fc1f 	cmp	w0, #0x1bf
ffff10fc:	54001428 	b.hi	0xffff1380  // b.pmore
ffff1100:	f0000000 	adrp	x0, 0xffff4000
ffff1104:	b949a000 	ldr	w0, [x0, #2464]
ffff1108:	320783e1 	mov	w1, #0x2000200             	// #33554944
ffff110c:	b9000001 	str	w1, [x0]
ffff1110:	320683e1 	mov	w1, #0x4000400             	// #67109888
ffff1114:	b9000001 	str	w1, [x0]
ffff1118:	52bfe158 	mov	w24, #0xff0a0000            	// #-16121856
ffff111c:	f0000000 	adrp	x0, 0xffff4000
ffff1120:	b949a000 	ldr	w0, [x0, #2464]
ffff1124:	320583e1 	mov	w1, #0x8000800             	// #134219776
ffff1128:	b9000001 	str	w1, [x0]
ffff112c:	528000a0 	mov	w0, #0x5                   	// #5
ffff1130:	97fffd60 	bl	0xffff06b0
ffff1134:	f0000000 	adrp	x0, 0xffff4000
ffff1138:	b949a413 	ldr	w19, [x0, #2468]
ffff113c:	320b83e0 	mov	w0, #0x200020              	// #2097184
ffff1140:	b9000260 	str	w0, [x19]
ffff1144:	528000a0 	mov	w0, #0x5                   	// #5
ffff1148:	97fffd5a 	bl	0xffff06b0
ffff114c:	52a00400 	mov	w0, #0x200000              	// #2097152
ffff1150:	b9000260 	str	w0, [x19]
ffff1154:	528000a0 	mov	w0, #0x5                   	// #5
ffff1158:	97fffd56 	bl	0xffff06b0
ffff115c:	34001014 	cbz	w20, 0xffff135c
ffff1160:	2a1f03e2 	mov	w2, wzr
ffff1164:	11008300 	add	w0, w24, #0x20
ffff1168:	53007c17 	lsr	w23, w0, #0
ffff116c:	1100a300 	add	w0, w24, #0x28
ffff1170:	53007c00 	lsr	w0, w0, #0
ffff1174:	f90027e0 	str	x0, [sp, #72]
ffff1178:	11009300 	add	w0, w24, #0x24
ffff117c:	53007c00 	lsr	w0, w0, #0
ffff1180:	f9002fe0 	str	x0, [sp, #88]
ffff1184:	11400700 	add	w0, w24, #0x1, lsl #12
ffff1188:	53007c00 	lsr	w0, w0, #0
ffff118c:	f9002be0 	str	x0, [sp, #80]
ffff1190:	52820080 	mov	w0, #0x1004                	// #4100
ffff1194:	0b204300 	add	w0, w24, w0, uxtw
ffff1198:	53007c1c 	lsr	w28, w0, #0
ffff119c:	52820100 	mov	w0, #0x1008                	// #4104
ffff11a0:	0b204300 	add	w0, w24, w0, uxtw
ffff11a4:	53007c14 	lsr	w20, w0, #0
ffff11a8:	110c1300 	add	w0, w24, #0x304
ffff11ac:	53007c16 	lsr	w22, w0, #0
ffff11b0:	52820180 	mov	w0, #0x100c                	// #4108
ffff11b4:	0b204300 	add	w0, w24, w0, uxtw
ffff11b8:	53007c00 	lsr	w0, w0, #0
ffff11bc:	f90023e0 	str	x0, [sp, #64]
ffff11c0:	52820200 	mov	w0, #0x1010                	// #4112
ffff11c4:	0b204300 	add	w0, w24, w0, uxtw
ffff11c8:	53007c00 	lsr	w0, w0, #0
ffff11cc:	f9001fe0 	str	x0, [sp, #56]
ffff11d0:	52820280 	mov	w0, #0x1014                	// #4116
ffff11d4:	0b204300 	add	w0, w24, w0, uxtw
ffff11d8:	53007c00 	lsr	w0, w0, #0
ffff11dc:	f9001be0 	str	x0, [sp, #48]
ffff11e0:	52820300 	mov	w0, #0x1018                	// #4120
ffff11e4:	0b204300 	add	w0, w24, w0, uxtw
ffff11e8:	53007c00 	lsr	w0, w0, #0
ffff11ec:	f90017e0 	str	x0, [sp, #40]
ffff11f0:	52840400 	mov	w0, #0x2020                	// #8224
ffff11f4:	0b204300 	add	w0, w24, w0, uxtw
ffff11f8:	53007c00 	lsr	w0, w0, #0
ffff11fc:	f90013e0 	str	x0, [sp, #32]
ffff1200:	129fffa3 	mov	w3, #0xffff0002            	// #-65534
ffff1204:	129fffbb 	mov	w27, #0xffff0002            	// #-65534
ffff1208:	b9000fe2 	str	w2, [sp, #12]
ffff120c:	2a1f03f3 	mov	w19, wzr
ffff1210:	2a1f03f9 	mov	w25, wzr
ffff1214:	320e83e0 	mov	w0, #0x40004               	// #262148
ffff1218:	b90002e0 	str	w0, [x23]
ffff121c:	f94027e0 	ldr	x0, [sp, #72]
ffff1220:	52bfffe1 	mov	w1, #0xffff0000            	// #-65536
ffff1224:	b9000001 	str	w1, [x0]
ffff1228:	f0000000 	adrp	x0, 0xffff4000
ffff122c:	b949a800 	ldr	w0, [x0, #2472]
ffff1230:	b90002e0 	str	w0, [x23]
ffff1234:	f9402fe0 	ldr	x0, [sp, #88]
ffff1238:	b9000003 	str	w3, [x0]
ffff123c:	f9402be0 	ldr	x0, [sp, #80]
ffff1240:	52801f81 	mov	w1, #0xfc                  	// #252
ffff1244:	b9000001 	str	w1, [x0]
ffff1248:	12001ea0 	and	w0, w21, #0xff
ffff124c:	b9000380 	str	w0, [x28]
ffff1250:	53083ea0 	ubfx	w0, w21, #8, #8
ffff1254:	b9000280 	str	w0, [x20]
ffff1258:	320083f8 	mov	w24, #0x10001               	// #65537
ffff125c:	b90002f8 	str	w24, [x23]
ffff1260:	b94002c0 	ldr	w0, [x22]
ffff1264:	1284e21a 	mov	w26, #0xffffd8ef            	// #-10001
ffff1268:	37080100 	tbnz	w0, #1, 0xffff1288
ffff126c:	1100075a 	add	w26, w26, #0x1
ffff1270:	12800000 	mov	w0, #0xffffffff            	// #-1
ffff1274:	3400077a 	cbz	w26, 0xffff1360
ffff1278:	52800020 	mov	w0, #0x1                   	// #1
ffff127c:	97fffd0d 	bl	0xffff06b0
ffff1280:	b94002c0 	ldr	w0, [x22]
ffff1284:	360fff40 	tbz	w0, #1, 0xffff126c
ffff1288:	b90002db 	str	w27, [x22]
ffff128c:	f9402fe0 	ldr	x0, [sp, #88]
ffff1290:	129fff21 	mov	w1, #0xffff0006            	// #-65530
ffff1294:	b9000001 	str	w1, [x0]
ffff1298:	f9402be0 	ldr	x0, [sp, #80]
ffff129c:	b900001f 	str	wzr, [x0]
ffff12a0:	b900039f 	str	wzr, [x28]
ffff12a4:	52800801 	mov	w1, #0x40                  	// #64
ffff12a8:	b9000281 	str	w1, [x20]
ffff12ac:	f94023e0 	ldr	x0, [sp, #64]
ffff12b0:	b9000001 	str	w1, [x0]
ffff12b4:	f9401fe0 	ldr	x0, [sp, #56]
ffff12b8:	b900001f 	str	wzr, [x0]
ffff12bc:	f9401be0 	ldr	x0, [sp, #48]
ffff12c0:	52800041 	mov	w1, #0x2                   	// #2
ffff12c4:	b9000001 	str	w1, [x0]
ffff12c8:	f94017e0 	ldr	x0, [sp, #40]
ffff12cc:	52801001 	mov	w1, #0x80                  	// #128
ffff12d0:	b9000001 	str	w1, [x0]
ffff12d4:	b90002f8 	str	w24, [x23]
ffff12d8:	b94002c0 	ldr	w0, [x22]
ffff12dc:	1284e218 	mov	w24, #0xffffd8ef            	// #-10001
ffff12e0:	37080100 	tbnz	w0, #1, 0xffff1300
ffff12e4:	11000718 	add	w24, w24, #0x1
ffff12e8:	12800000 	mov	w0, #0xffffffff            	// #-1
ffff12ec:	340003b8 	cbz	w24, 0xffff1360
ffff12f0:	52800020 	mov	w0, #0x1                   	// #1
ffff12f4:	97fffcef 	bl	0xffff06b0
ffff12f8:	b94002c0 	ldr	w0, [x22]
ffff12fc:	360fff40 	tbz	w0, #1, 0xffff12e4
ffff1300:	129fffa3 	mov	w3, #0xffff0002            	// #-65534
ffff1304:	b90002c3 	str	w3, [x22]
ffff1308:	f94013e0 	ldr	x0, [sp, #32]
ffff130c:	b9400000 	ldr	w0, [x0]
ffff1310:	129fff81 	mov	w1, #0xffff0003            	// #-65533
ffff1314:	b90002c1 	str	w1, [x22]
ffff1318:	12001c00 	and	w0, w0, #0xff
ffff131c:	531d7321 	lsl	w1, w25, #3
ffff1320:	1ac12000 	lsl	w0, w0, w1
ffff1324:	2a130013 	orr	w19, w0, w19
ffff1328:	110006b5 	add	w21, w21, #0x1
ffff132c:	11000739 	add	w25, w25, #0x1
ffff1330:	7100133f 	cmp	w25, #0x4
ffff1334:	54fff703 	b.cc	0xffff1214  // b.lo, b.ul, b.last
ffff1338:	f9400fe0 	ldr	x0, [sp, #24]
ffff133c:	b9000013 	str	w19, [x0]
ffff1340:	91001000 	add	x0, x0, #0x4
ffff1344:	b9400fe2 	ldr	w2, [sp, #12]
ffff1348:	11000442 	add	w2, w2, #0x1
ffff134c:	f9400be1 	ldr	x1, [sp, #16]
ffff1350:	6b21405f 	cmp	w2, w1, uxtw
ffff1354:	f9000fe0 	str	x0, [sp, #24]
ffff1358:	54fff583 	b.cc	0xffff1208  // b.lo, b.ul, b.last
ffff135c:	2a1f03e0 	mov	w0, wzr
ffff1360:	a94653f3 	ldp	x19, x20, [sp, #96]
ffff1364:	a9475bf5 	ldp	x21, x22, [sp, #112]
ffff1368:	a94863f7 	ldp	x23, x24, [sp, #128]
ffff136c:	a9496bf9 	ldp	x25, x26, [sp, #144]
ffff1370:	a94a73fb 	ldp	x27, x28, [sp, #160]
ffff1374:	a94b7bfd 	ldp	x29, x30, [sp, #176]
ffff1378:	910303ff 	add	sp, sp, #0xc0
ffff137c:	d65f03c0 	ret
ffff1380:	121a66a0 	and	w0, w21, #0xffffffc0
ffff1384:	710f001f 	cmp	w0, #0x3c0
ffff1388:	54ffeca1 	b.ne	0xffff111c  // b.any
ffff138c:	f0000000 	adrp	x0, 0xffff4000
ffff1390:	b949a000 	ldr	w0, [x0, #2464]
ffff1394:	320783e1 	mov	w1, #0x2000200             	// #33554944
ffff1398:	b9000001 	str	w1, [x0]
ffff139c:	52a08001 	mov	w1, #0x4000000             	// #67108864
ffff13a0:	b9000001 	str	w1, [x0]
ffff13a4:	52bfe4f8 	mov	w24, #0xff270000            	// #-14221312
ffff13a8:	17ffff5d 	b	0xffff111c
ffff13ac:	d10203ff 	sub	sp, sp, #0x80
ffff13b0:	a9077bfd 	stp	x29, x30, [sp, #112]
ffff13b4:	9101c3fd 	add	x29, sp, #0x70
ffff13b8:	a90673fb 	stp	x27, x28, [sp, #96]
ffff13bc:	a9056bf9 	stp	x25, x26, [sp, #80]
ffff13c0:	a90463f7 	stp	x23, x24, [sp, #64]
ffff13c4:	a9035bf5 	stp	x21, x22, [sp, #48]
ffff13c8:	a90253f3 	stp	x19, x20, [sp, #32]
ffff13cc:	aa0203f8 	mov	x24, x2
ffff13d0:	f9000bf8 	str	x24, [sp, #16]
ffff13d4:	f9000fe0 	str	x0, [sp, #24]
ffff13d8:	531e7435 	lsl	w21, w1, #2
ffff13dc:	7107febf 	cmp	w21, #0x1ff
ffff13e0:	540000a8 	b.hi	0xffff13f4  // b.pmore
ffff13e4:	f0000000 	adrp	x0, 0xffff4000
ffff13e8:	b949ac00 	ldr	w0, [x0, #2476]
ffff13ec:	52a04001 	mov	w1, #0x2000000             	// #33554432
ffff13f0:	14000007 	b	0xffff140c
ffff13f4:	510802a0 	sub	w0, w21, #0x200
ffff13f8:	7106fc1f 	cmp	w0, #0x1bf
ffff13fc:	54000a28 	b.hi	0xffff1540  // b.pmore
ffff1400:	f0000000 	adrp	x0, 0xffff4000
ffff1404:	b949ac00 	ldr	w0, [x0, #2476]
ffff1408:	320783e1 	mov	w1, #0x2000200             	// #33554944
ffff140c:	b9000001 	str	w1, [x0]
ffff1410:	320683e1 	mov	w1, #0x4000400             	// #67109888
ffff1414:	b9000001 	str	w1, [x0]
ffff1418:	52bfe154 	mov	w20, #0xff0a0000            	// #-16121856
ffff141c:	f0000000 	adrp	x0, 0xffff4000
ffff1420:	b949b013 	ldr	w19, [x0, #2480]
ffff1424:	320b83e0 	mov	w0, #0x200020              	// #2097184
ffff1428:	b9000260 	str	w0, [x19]
ffff142c:	528000a0 	mov	w0, #0x5                   	// #5
ffff1430:	97fffca0 	bl	0xffff06b0
ffff1434:	11040280 	add	w0, w20, #0x100
ffff1438:	53007c16 	lsr	w22, w0, #0
ffff143c:	320083f7 	mov	w23, #0x10001               	// #65537
ffff1440:	b90002d7 	str	w23, [x22]
ffff1444:	528000a0 	mov	w0, #0x5                   	// #5
ffff1448:	97fffc9a 	bl	0xffff06b0
ffff144c:	52a00400 	mov	w0, #0x200000              	// #2097152
ffff1450:	b9000260 	str	w0, [x19]
ffff1454:	528000a0 	mov	w0, #0x5                   	// #5
ffff1458:	97fffc96 	bl	0xffff06b0
ffff145c:	340005d8 	cbz	w24, 0xffff1514
ffff1460:	2a1f03e2 	mov	w2, wzr
ffff1464:	11041280 	add	w0, w20, #0x104
ffff1468:	53007c19 	lsr	w25, w0, #0
ffff146c:	11042280 	add	w0, w20, #0x108
ffff1470:	53007c1a 	lsr	w26, w0, #0
ffff1474:	110c1280 	add	w0, w20, #0x304
ffff1478:	53007c1b 	lsr	w27, w0, #0
ffff147c:	11049280 	add	w0, w20, #0x124
ffff1480:	53007c1c 	lsr	w28, w0, #0
ffff1484:	b9000fe2 	str	w2, [sp, #12]
ffff1488:	2a1f03f3 	mov	w19, wzr
ffff148c:	2a1f03f8 	mov	w24, wzr
ffff1490:	32103ea0 	orr	w0, w21, #0xffff0000
ffff1494:	b9000320 	str	w0, [x25]
ffff1498:	b9000357 	str	w23, [x26]
ffff149c:	b9400360 	ldr	w0, [x27]
ffff14a0:	1284e214 	mov	w20, #0xffffd8ef            	// #-10001
ffff14a4:	37100100 	tbnz	w0, #2, 0xffff14c4
ffff14a8:	11000694 	add	w20, w20, #0x1
ffff14ac:	12800000 	mov	w0, #0xffffffff            	// #-1
ffff14b0:	34000394 	cbz	w20, 0xffff1520
ffff14b4:	52800020 	mov	w0, #0x1                   	// #1
ffff14b8:	97fffc7e 	bl	0xffff06b0
ffff14bc:	b9400360 	ldr	w0, [x27]
ffff14c0:	3617ff40 	tbz	w0, #2, 0xffff14a8
ffff14c4:	129fff60 	mov	w0, #0xffff0004            	// #-65532
ffff14c8:	b9000360 	str	w0, [x27]
ffff14cc:	b9400380 	ldr	w0, [x28]
ffff14d0:	12001c00 	and	w0, w0, #0xff
ffff14d4:	531d7301 	lsl	w1, w24, #3
ffff14d8:	1ac12000 	lsl	w0, w0, w1
ffff14dc:	2a130013 	orr	w19, w0, w19
ffff14e0:	110006b5 	add	w21, w21, #0x1
ffff14e4:	11000718 	add	w24, w24, #0x1
ffff14e8:	7100131f 	cmp	w24, #0x4
ffff14ec:	54fffd23 	b.cc	0xffff1490  // b.lo, b.ul, b.last
ffff14f0:	f9400fe0 	ldr	x0, [sp, #24]
ffff14f4:	b9000013 	str	w19, [x0]
ffff14f8:	91001000 	add	x0, x0, #0x4
ffff14fc:	b9400fe2 	ldr	w2, [sp, #12]
ffff1500:	11000442 	add	w2, w2, #0x1
ffff1504:	f9400be1 	ldr	x1, [sp, #16]
ffff1508:	6b21405f 	cmp	w2, w1, uxtw
ffff150c:	f9000fe0 	str	x0, [sp, #24]
ffff1510:	54fffba3 	b.cc	0xffff1484  // b.lo, b.ul, b.last
ffff1514:	2a1f03e0 	mov	w0, wzr
ffff1518:	52a00021 	mov	w1, #0x10000               	// #65536
ffff151c:	b90002c1 	str	w1, [x22]
ffff1520:	a94253f3 	ldp	x19, x20, [sp, #32]
ffff1524:	a9435bf5 	ldp	x21, x22, [sp, #48]
ffff1528:	a94463f7 	ldp	x23, x24, [sp, #64]
ffff152c:	a9456bf9 	ldp	x25, x26, [sp, #80]
ffff1530:	a94673fb 	ldp	x27, x28, [sp, #96]
ffff1534:	a9477bfd 	ldp	x29, x30, [sp, #112]
ffff1538:	910203ff 	add	sp, sp, #0x80
ffff153c:	d65f03c0 	ret
ffff1540:	121a66a0 	and	w0, w21, #0xffffffc0
ffff1544:	710f001f 	cmp	w0, #0x3c0
ffff1548:	54fff6a1 	b.ne	0xffff141c  // b.any
ffff154c:	f0000000 	adrp	x0, 0xffff4000
ffff1550:	b949ac00 	ldr	w0, [x0, #2476]
ffff1554:	320783e1 	mov	w1, #0x2000200             	// #33554944
ffff1558:	b9000001 	str	w1, [x0]
ffff155c:	52a08001 	mov	w1, #0x4000000             	// #67108864
ffff1560:	b9000001 	str	w1, [x0]
ffff1564:	52bfe4f4 	mov	w20, #0xff270000            	// #-14221312
ffff1568:	17ffffad 	b	0xffff141c
ffff156c:	d10043ff 	sub	sp, sp, #0x10
ffff1570:	a9007bfd 	stp	x29, x30, [sp]
ffff1574:	910003fd 	mov	x29, sp
ffff1578:	f0ff84e3 	adrp	x3, 0xff090000
ffff157c:	b940ec63 	ldr	w3, [x3, #236]
ffff1580:	34000063 	cbz	w3, 0xffff158c
ffff1584:	97ffff8a 	bl	0xffff13ac
ffff1588:	14000002 	b	0xffff1590
ffff158c:	97fffec8 	bl	0xffff10ac
ffff1590:	a9407bfd 	ldp	x29, x30, [sp]
ffff1594:	910043ff 	add	sp, sp, #0x10
ffff1598:	d65f03c0 	ret
ffff159c:	d10203ff 	sub	sp, sp, #0x80
ffff15a0:	a9077bfd 	stp	x29, x30, [sp, #112]
ffff15a4:	9101c3fd 	add	x29, sp, #0x70
ffff15a8:	a90673fb 	stp	x27, x28, [sp, #96]
ffff15ac:	a9056bf9 	stp	x25, x26, [sp, #80]
ffff15b0:	a90463f7 	stp	x23, x24, [sp, #64]
ffff15b4:	a9035bf5 	stp	x21, x22, [sp, #48]
ffff15b8:	a90253f3 	stp	x19, x20, [sp, #32]
ffff15bc:	f0ff84e0 	adrp	x0, 0xff090000
ffff15c0:	b900ec1f 	str	wzr, [x0, #236]
ffff15c4:	f0000000 	adrp	x0, 0xffff4000
ffff15c8:	b949b419 	ldr	w25, [x0, #2484]
ffff15cc:	320583fa 	mov	w26, #0x8000800             	// #134219776
ffff15d0:	b900033a 	str	w26, [x25]
ffff15d4:	f0000000 	adrp	x0, 0xffff4000
ffff15d8:	b949b814 	ldr	w20, [x0, #2488]
ffff15dc:	320e83e0 	mov	w0, #0x40004               	// #262148
ffff15e0:	b90017e0 	str	w0, [sp, #20]
ffff15e4:	b9000280 	str	w0, [x20]
ffff15e8:	f0000000 	adrp	x0, 0xffff4000
ffff15ec:	b949bc01 	ldr	w1, [x0, #2492]
ffff15f0:	f90007e1 	str	x1, [sp, #8]
ffff15f4:	52bfffe0 	mov	w0, #0xffff0000            	// #-65536
ffff15f8:	b9000020 	str	w0, [x1]
ffff15fc:	f0000000 	adrp	x0, 0xffff4000
ffff1600:	b949c000 	ldr	w0, [x0, #2496]
ffff1604:	b90007e0 	str	w0, [sp, #4]
ffff1608:	b9000280 	str	w0, [x20]
ffff160c:	f0000000 	adrp	x0, 0xffff4000
ffff1610:	b949c415 	ldr	w21, [x0, #2500]
ffff1614:	129fffc0 	mov	w0, #0xffff0001            	// #-65535
ffff1618:	b90002a0 	str	w0, [x21]
ffff161c:	f0000000 	adrp	x0, 0xffff4000
ffff1620:	b949c816 	ldr	w22, [x0, #2504]
ffff1624:	528017f8 	mov	w24, #0xbf                  	// #191
ffff1628:	f0000000 	adrp	x0, 0xffff4000
ffff162c:	b949cc13 	ldr	w19, [x0, #2508]
ffff1630:	b90002d8 	str	w24, [x22]
ffff1634:	320083f7 	mov	w23, #0x10001               	// #65537
ffff1638:	b9000297 	str	w23, [x20]
ffff163c:	b9400260 	ldr	w0, [x19]
ffff1640:	37080100 	tbnz	w0, #1, 0xffff1660
ffff1644:	1284e21b 	mov	w27, #0xffffd8ef            	// #-10001
ffff1648:	1100077b 	add	w27, w27, #0x1
ffff164c:	3400135b 	cbz	w27, 0xffff18b4
ffff1650:	52800020 	mov	w0, #0x1                   	// #1
ffff1654:	97fffc17 	bl	0xffff06b0
ffff1658:	b9400260 	ldr	w0, [x19]
ffff165c:	360fff60 	tbz	w0, #1, 0xffff1648
ffff1660:	129fffbb 	mov	w27, #0xffff0002            	// #-65534
ffff1664:	b900027b 	str	w27, [x19]
ffff1668:	b90002bb 	str	w27, [x21]
ffff166c:	f0000000 	adrp	x0, 0xffff4000
ffff1670:	b949d001 	ldr	w1, [x0, #2512]
ffff1674:	f9000fe1 	str	x1, [sp, #24]
ffff1678:	52800020 	mov	w0, #0x1                   	// #1
ffff167c:	b90002c0 	str	w0, [x22]
ffff1680:	b9000038 	str	w24, [x1]
ffff1684:	b9000297 	str	w23, [x20]
ffff1688:	b9400260 	ldr	w0, [x19]
ffff168c:	37080100 	tbnz	w0, #1, 0xffff16ac
ffff1690:	1284e218 	mov	w24, #0xffffd8ef            	// #-10001
ffff1694:	11000718 	add	w24, w24, #0x1
ffff1698:	340010f8 	cbz	w24, 0xffff18b4
ffff169c:	52800020 	mov	w0, #0x1                   	// #1
ffff16a0:	97fffc04 	bl	0xffff06b0
ffff16a4:	b9400260 	ldr	w0, [x19]
ffff16a8:	360fff60 	tbz	w0, #1, 0xffff1694
ffff16ac:	f0000000 	adrp	x0, 0xffff4000
ffff16b0:	b949d418 	ldr	w24, [x0, #2516]
ffff16b4:	b900027b 	str	w27, [x19]
ffff16b8:	b9400300 	ldr	w0, [x24]
ffff16bc:	36200100 	tbz	w0, #4, 0xffff16dc
ffff16c0:	1284e21b 	mov	w27, #0xffffd8ef            	// #-10001
ffff16c4:	1100077b 	add	w27, w27, #0x1
ffff16c8:	34000f7b 	cbz	w27, 0xffff18b4
ffff16cc:	52800020 	mov	w0, #0x1                   	// #1
ffff16d0:	97fffbf8 	bl	0xffff06b0
ffff16d4:	b9400300 	ldr	w0, [x24]
ffff16d8:	3727ff60 	tbnz	w0, #4, 0xffff16c4
ffff16dc:	129fffbb 	mov	w27, #0xffff0002            	// #-65534
ffff16e0:	b90002bb 	str	w27, [x21]
ffff16e4:	52800040 	mov	w0, #0x2                   	// #2
ffff16e8:	b90002c0 	str	w0, [x22]
ffff16ec:	528017e0 	mov	w0, #0xbf                  	// #191
ffff16f0:	f9400fe1 	ldr	x1, [sp, #24]
ffff16f4:	b9000020 	str	w0, [x1]
ffff16f8:	b9000297 	str	w23, [x20]
ffff16fc:	b9400260 	ldr	w0, [x19]
ffff1700:	37080100 	tbnz	w0, #1, 0xffff1720
ffff1704:	1284e21c 	mov	w28, #0xffffd8ef            	// #-10001
ffff1708:	1100079c 	add	w28, w28, #0x1
ffff170c:	34000d5c 	cbz	w28, 0xffff18b4
ffff1710:	52800020 	mov	w0, #0x1                   	// #1
ffff1714:	97fffbe7 	bl	0xffff06b0
ffff1718:	b9400260 	ldr	w0, [x19]
ffff171c:	360fff60 	tbz	w0, #1, 0xffff1708
ffff1720:	b900027b 	str	w27, [x19]
ffff1724:	b9400300 	ldr	w0, [x24]
ffff1728:	37200100 	tbnz	w0, #4, 0xffff1748
ffff172c:	1284e21b 	mov	w27, #0xffffd8ef            	// #-10001
ffff1730:	1100077b 	add	w27, w27, #0x1
ffff1734:	34000c1b 	cbz	w27, 0xffff18b4
ffff1738:	52800020 	mov	w0, #0x1                   	// #1
ffff173c:	97fffbdd 	bl	0xffff06b0
ffff1740:	b9400300 	ldr	w0, [x24]
ffff1744:	3627ff60 	tbz	w0, #4, 0xffff1730
ffff1748:	320783e0 	mov	w0, #0x2000200             	// #33554944
ffff174c:	b9000320 	str	w0, [x25]
ffff1750:	b900033a 	str	w26, [x25]
ffff1754:	528000a0 	mov	w0, #0x5                   	// #5
ffff1758:	97fffbd6 	bl	0xffff06b0
ffff175c:	f0000000 	adrp	x0, 0xffff4000
ffff1760:	b949d819 	ldr	w25, [x0, #2520]
ffff1764:	320b83e0 	mov	w0, #0x200020              	// #2097184
ffff1768:	b9000320 	str	w0, [x25]
ffff176c:	528000a0 	mov	w0, #0x5                   	// #5
ffff1770:	97fffbd0 	bl	0xffff06b0
ffff1774:	52a00400 	mov	w0, #0x200000              	// #2097152
ffff1778:	b9000320 	str	w0, [x25]
ffff177c:	528000a0 	mov	w0, #0x5                   	// #5
ffff1780:	97fffbcc 	bl	0xffff06b0
ffff1784:	b94017e0 	ldr	w0, [sp, #20]
ffff1788:	b9000280 	str	w0, [x20]
ffff178c:	52bfffe0 	mov	w0, #0xffff0000            	// #-65536
ffff1790:	f94007e1 	ldr	x1, [sp, #8]
ffff1794:	b9000020 	str	w0, [x1]
ffff1798:	b94007e0 	ldr	w0, [sp, #4]
ffff179c:	b9000280 	str	w0, [x20]
ffff17a0:	129fffc0 	mov	w0, #0xffff0001            	// #-65535
ffff17a4:	b90002a0 	str	w0, [x21]
ffff17a8:	528017f9 	mov	w25, #0xbf                  	// #191
ffff17ac:	b90002d9 	str	w25, [x22]
ffff17b0:	b9000297 	str	w23, [x20]
ffff17b4:	b9400260 	ldr	w0, [x19]
ffff17b8:	37080100 	tbnz	w0, #1, 0xffff17d8
ffff17bc:	1284e21a 	mov	w26, #0xffffd8ef            	// #-10001
ffff17c0:	1100075a 	add	w26, w26, #0x1
ffff17c4:	3400079a 	cbz	w26, 0xffff18b4
ffff17c8:	52800020 	mov	w0, #0x1                   	// #1
ffff17cc:	97fffbb9 	bl	0xffff06b0
ffff17d0:	b9400260 	ldr	w0, [x19]
ffff17d4:	360fff60 	tbz	w0, #1, 0xffff17c0
ffff17d8:	129fffba 	mov	w26, #0xffff0002            	// #-65534
ffff17dc:	b900027a 	str	w26, [x19]
ffff17e0:	b90002ba 	str	w26, [x21]
ffff17e4:	52800020 	mov	w0, #0x1                   	// #1
ffff17e8:	b90002c0 	str	w0, [x22]
ffff17ec:	f9400fe0 	ldr	x0, [sp, #24]
ffff17f0:	b9000019 	str	w25, [x0]
ffff17f4:	b9000297 	str	w23, [x20]
ffff17f8:	b9400260 	ldr	w0, [x19]
ffff17fc:	37080100 	tbnz	w0, #1, 0xffff181c
ffff1800:	1284e219 	mov	w25, #0xffffd8ef            	// #-10001
ffff1804:	11000739 	add	w25, w25, #0x1
ffff1808:	34000579 	cbz	w25, 0xffff18b4
ffff180c:	52800020 	mov	w0, #0x1                   	// #1
ffff1810:	97fffba8 	bl	0xffff06b0
ffff1814:	b9400260 	ldr	w0, [x19]
ffff1818:	360fff60 	tbz	w0, #1, 0xffff1804
ffff181c:	b900027a 	str	w26, [x19]
ffff1820:	b9400300 	ldr	w0, [x24]
ffff1824:	36200100 	tbz	w0, #4, 0xffff1844
ffff1828:	1284e219 	mov	w25, #0xffffd8ef            	// #-10001
ffff182c:	11000739 	add	w25, w25, #0x1
ffff1830:	34000439 	cbz	w25, 0xffff18b4
ffff1834:	52800020 	mov	w0, #0x1                   	// #1
ffff1838:	97fffb9e 	bl	0xffff06b0
ffff183c:	b9400300 	ldr	w0, [x24]
ffff1840:	3727ff60 	tbnz	w0, #4, 0xffff182c
ffff1844:	129fffb9 	mov	w25, #0xffff0002            	// #-65534
ffff1848:	b90002b9 	str	w25, [x21]
ffff184c:	52800040 	mov	w0, #0x2                   	// #2
ffff1850:	b90002c0 	str	w0, [x22]
ffff1854:	528017e0 	mov	w0, #0xbf                  	// #191
ffff1858:	f9400fe1 	ldr	x1, [sp, #24]
ffff185c:	b9000020 	str	w0, [x1]
ffff1860:	b9000297 	str	w23, [x20]
ffff1864:	b9400260 	ldr	w0, [x19]
ffff1868:	37080100 	tbnz	w0, #1, 0xffff1888
ffff186c:	1284e214 	mov	w20, #0xffffd8ef            	// #-10001
ffff1870:	11000694 	add	w20, w20, #0x1
ffff1874:	34000214 	cbz	w20, 0xffff18b4
ffff1878:	52800020 	mov	w0, #0x1                   	// #1
ffff187c:	97fffb8d 	bl	0xffff06b0
ffff1880:	b9400260 	ldr	w0, [x19]
ffff1884:	360fff60 	tbz	w0, #1, 0xffff1870
ffff1888:	b9000279 	str	w25, [x19]
ffff188c:	b9400300 	ldr	w0, [x24]
ffff1890:	37200120 	tbnz	w0, #4, 0xffff18b4
ffff1894:	1284e1c0 	mov	w0, #0xffffd8f1            	// #-9999
ffff1898:	2a0003f3 	mov	w19, w0
ffff189c:	52800020 	mov	w0, #0x1                   	// #1
ffff18a0:	97fffb84 	bl	0xffff06b0
ffff18a4:	b9400300 	ldr	w0, [x24]
ffff18a8:	37200060 	tbnz	w0, #4, 0xffff18b4
ffff18ac:	11000660 	add	w0, w19, #0x1
ffff18b0:	35ffff53 	cbnz	w19, 0xffff1898
ffff18b4:	a94253f3 	ldp	x19, x20, [sp, #32]
ffff18b8:	a9435bf5 	ldp	x21, x22, [sp, #48]
ffff18bc:	a94463f7 	ldp	x23, x24, [sp, #64]
ffff18c0:	a9456bf9 	ldp	x25, x26, [sp, #80]
ffff18c4:	a94673fb 	ldp	x27, x28, [sp, #96]
ffff18c8:	a9477bfd 	ldp	x29, x30, [sp, #112]
ffff18cc:	910203ff 	add	sp, sp, #0x80
ffff18d0:	d65f03c0 	ret
ffff18d4:	f0000000 	adrp	x0, 0xffff4000
ffff18d8:	b949dc00 	ldr	w0, [x0, #2524]
ffff18dc:	52a00021 	mov	w1, #0x10000               	// #65536
ffff18e0:	b9000001 	str	w1, [x0]
ffff18e4:	52a20001 	mov	w1, #0x10000000            	// #268435456
ffff18e8:	b9000001 	str	w1, [x0]
ffff18ec:	f0000000 	adrp	x0, 0xffff4000
ffff18f0:	b949e000 	ldr	w0, [x0, #2528]
ffff18f4:	f0000001 	adrp	x1, 0xffff4000
ffff18f8:	b949e421 	ldr	w1, [x1, #2532]
ffff18fc:	b9000020 	str	w0, [x1]
ffff1900:	f0000000 	adrp	x0, 0xffff4000
ffff1904:	b949e800 	ldr	w0, [x0, #2536]
ffff1908:	52ae6fe1 	mov	w1, #0x737f0000            	// #1937702912
ffff190c:	b9000001 	str	w1, [x0]
ffff1910:	f0000000 	adrp	x0, 0xffff4000
ffff1914:	b949ec00 	ldr	w0, [x0, #2540]
ffff1918:	f0000001 	adrp	x1, 0xffff4000
ffff191c:	b949f021 	ldr	w1, [x1, #2544]
ffff1920:	f0000002 	adrp	x2, 0xffff4000
ffff1924:	b949f442 	ldr	w2, [x2, #2548]
ffff1928:	f0000003 	adrp	x3, 0xffff4000
ffff192c:	b949f863 	ldr	w3, [x3, #2552]
ffff1930:	f0000004 	adrp	x4, 0xffff4000
ffff1934:	b949fc84 	ldr	w4, [x4, #2556]
ffff1938:	b9000020 	str	w0, [x1]
ffff193c:	b9000062 	str	w2, [x3]
ffff1940:	52a00e60 	mov	w0, #0x730000              	// #7536640
ffff1944:	b9000080 	str	w0, [x4]
ffff1948:	d65f03c0 	ret
ffff194c:	d100c3ff 	sub	sp, sp, #0x30
ffff1950:	a9027bfd 	stp	x29, x30, [sp, #32]
ffff1954:	910083fd 	add	x29, sp, #0x20
ffff1958:	a9015bf5 	stp	x21, x22, [sp, #16]
ffff195c:	a90053f3 	stp	x19, x20, [sp]
ffff1960:	97fffb4e 	bl	0xffff0698
ffff1964:	71031c1f 	cmp	w0, #0xc7
ffff1968:	54000908 	b.hi	0xffff1a88  // b.pmore
ffff196c:	f0000000 	adrp	x0, 0xffff4000
ffff1970:	b94a0014 	ldr	w20, [x0, #2560]
ffff1974:	320383e0 	mov	w0, #0x20002000            	// #536879104
ffff1978:	b9000280 	str	w0, [x20]
ffff197c:	320483f3 	mov	w19, #0x10001000            	// #268439552
ffff1980:	b9000293 	str	w19, [x20]
ffff1984:	f0000000 	adrp	x0, 0xffff4000
ffff1988:	b94a0400 	ldr	w0, [x0, #2564]
ffff198c:	d2bfe881 	mov	x1, #0xff440000            	// #4282646528
ffff1990:	b9000020 	str	w0, [x1]
ffff1994:	f0000000 	adrp	x0, 0xffff4000
ffff1998:	b94a0800 	ldr	w0, [x0, #2568]
ffff199c:	b9000280 	str	w0, [x20]
ffff19a0:	f0000000 	adrp	x0, 0xffff4000
ffff19a4:	b94a0c15 	ldr	w21, [x0, #2572]
ffff19a8:	52a40016 	mov	w22, #0x20000000            	// #536870912
ffff19ac:	f0000000 	adrp	x0, 0xffff4000
ffff19b0:	b94a1000 	ldr	w0, [x0, #2576]
ffff19b4:	f0000001 	adrp	x1, 0xffff4000
ffff19b8:	b94a1421 	ldr	w1, [x1, #2580]
ffff19bc:	f0000002 	adrp	x2, 0xffff4000
ffff19c0:	b94a1842 	ldr	w2, [x2, #2584]
ffff19c4:	b90002b6 	str	w22, [x21]
ffff19c8:	b90002b3 	str	w19, [x21]
ffff19cc:	b9000020 	str	w0, [x1]
ffff19d0:	b90002a2 	str	w2, [x21]
ffff19d4:	52800140 	mov	w0, #0xa                   	// #10
ffff19d8:	97fffb36 	bl	0xffff06b0
ffff19dc:	b9000296 	str	w22, [x20]
ffff19e0:	b90002b6 	str	w22, [x21]
ffff19e4:	52807d00 	mov	w0, #0x3e8                 	// #1000
ffff19e8:	97fffb32 	bl	0xffff06b0
ffff19ec:	f0000000 	adrp	x0, 0xffff4000
ffff19f0:	b94a1c00 	ldr	w0, [x0, #2588]
ffff19f4:	b9400000 	ldr	w0, [x0]
ffff19f8:	12001400 	and	w0, w0, #0x3f
ffff19fc:	34000100 	cbz	w0, 0xffff1a1c
ffff1a00:	f0000000 	adrp	x0, 0xffff4000
ffff1a04:	b94a2000 	ldr	w0, [x0, #2592]
ffff1a08:	f0000001 	adrp	x1, 0xffff4000
ffff1a0c:	b94a2421 	ldr	w1, [x1, #2596]
ffff1a10:	b9000020 	str	w0, [x1]
ffff1a14:	52801900 	mov	w0, #0xc8                  	// #200
ffff1a18:	14000007 	b	0xffff1a34
ffff1a1c:	f0000000 	adrp	x0, 0xffff4000
ffff1a20:	b94a2800 	ldr	w0, [x0, #2600]
ffff1a24:	f0000001 	adrp	x1, 0xffff4000
ffff1a28:	b94a2421 	ldr	w1, [x1, #2596]
ffff1a2c:	b9000020 	str	w0, [x1]
ffff1a30:	52803200 	mov	w0, #0x190                 	// #400
ffff1a34:	f0000001 	adrp	x1, 0xffff4000
ffff1a38:	b94a2c21 	ldr	w1, [x1, #2604]
ffff1a3c:	f0000002 	adrp	x2, 0xffff4000
ffff1a40:	b94a3042 	ldr	w2, [x2, #2608]
ffff1a44:	b9000041 	str	w1, [x2]
ffff1a48:	f0000001 	adrp	x1, 0xffff4000
ffff1a4c:	b94a3421 	ldr	w1, [x1, #2612]
ffff1a50:	f0000002 	adrp	x2, 0xffff4000
ffff1a54:	b94a3842 	ldr	w2, [x2, #2616]
ffff1a58:	b9000041 	str	w1, [x2]
ffff1a5c:	f0000001 	adrp	x1, 0xffff4000
ffff1a60:	b94a3c21 	ldr	w1, [x1, #2620]
ffff1a64:	f0000002 	adrp	x2, 0xffff4000
ffff1a68:	b94a4042 	ldr	w2, [x2, #2624]
ffff1a6c:	f0000003 	adrp	x3, 0xffff4000
ffff1a70:	b94a4463 	ldr	w3, [x3, #2628]
ffff1a74:	b9000041 	str	w1, [x2]
ffff1a78:	320083e1 	mov	w1, #0x10001               	// #65537
ffff1a7c:	b9000061 	str	w1, [x3]
ffff1a80:	b9000073 	str	w19, [x3]
ffff1a84:	97fffb08 	bl	0xffff06a4
ffff1a88:	a94053f3 	ldp	x19, x20, [sp]
ffff1a8c:	a9415bf5 	ldp	x21, x22, [sp, #16]
ffff1a90:	a9427bfd 	ldp	x29, x30, [sp, #32]
ffff1a94:	9100c3ff 	add	sp, sp, #0x30
ffff1a98:	d65f03c0 	ret
ffff1a9c:	d100c3ff 	sub	sp, sp, #0x30
ffff1aa0:	a9027bfd 	stp	x29, x30, [sp, #32]
ffff1aa4:	910083fd 	add	x29, sp, #0x20
ffff1aa8:	a90157f4 	stp	x20, x21, [sp, #16]
ffff1aac:	f90007f3 	str	x19, [sp, #8]
ffff1ab0:	f0000000 	adrp	x0, 0xffff4000
ffff1ab4:	b94a4800 	ldr	w0, [x0, #2632]
ffff1ab8:	f0000001 	adrp	x1, 0xffff4000
ffff1abc:	b94a4c21 	ldr	w1, [x1, #2636]
ffff1ac0:	b9000020 	str	w0, [x1]
ffff1ac4:	f0000000 	adrp	x0, 0xffff4000
ffff1ac8:	b94a5000 	ldr	w0, [x0, #2640]
ffff1acc:	52800054 	mov	w20, #0x2                   	// #2
ffff1ad0:	b9000014 	str	w20, [x0]
ffff1ad4:	d2bfe320 	mov	x0, #0xff190000            	// #4279828480
ffff1ad8:	52849821 	mov	w1, #0x24c1                	// #9409
ffff1adc:	b9000001 	str	w1, [x0]
ffff1ae0:	f0000000 	adrp	x0, 0xffff4000
ffff1ae4:	b94a5400 	ldr	w0, [x0, #2644]
ffff1ae8:	f0000001 	adrp	x1, 0xffff4000
ffff1aec:	b94a5821 	ldr	w1, [x1, #2648]
ffff1af0:	b9000020 	str	w0, [x1]
ffff1af4:	f0000000 	adrp	x0, 0xffff4000
ffff1af8:	b94a5c00 	ldr	w0, [x0, #2652]
ffff1afc:	f0000001 	adrp	x1, 0xffff4000
ffff1b00:	b94a6021 	ldr	w1, [x1, #2656]
ffff1b04:	f0000002 	adrp	x2, 0xffff4000
ffff1b08:	b94a6442 	ldr	w2, [x2, #2660]
ffff1b0c:	f0000003 	adrp	x3, 0xffff4000
ffff1b10:	b94a6863 	ldr	w3, [x3, #2664]
ffff1b14:	f0000004 	adrp	x4, 0xffff4000
ffff1b18:	b94a6c84 	ldr	w4, [x4, #2668]
ffff1b1c:	f0000005 	adrp	x5, 0xffff4000
ffff1b20:	b94a70a5 	ldr	w5, [x5, #2672]
ffff1b24:	b9000020 	str	w0, [x1]
ffff1b28:	b9000062 	str	w2, [x3]
ffff1b2c:	b90000a4 	str	w4, [x5]
ffff1b30:	52800033 	mov	w19, #0x1                   	// #1
ffff1b34:	52800020 	mov	w0, #0x1                   	// #1
ffff1b38:	97fffade 	bl	0xffff06b0
ffff1b3c:	f0ff84f5 	adrp	x21, 0xff090000
ffff1b40:	b90032b4 	str	w20, [x21, #48]
ffff1b44:	528013e0 	mov	w0, #0x9f                  	// #159
ffff1b48:	b90007e0 	str	w0, [sp, #4]
ffff1b4c:	910013e0 	add	x0, sp, #0x4
ffff1b50:	910007f4 	add	x20, sp, #0x1
ffff1b54:	52800021 	mov	w1, #0x1                   	// #1
ffff1b58:	52800063 	mov	w3, #0x3                   	// #3
ffff1b5c:	aa1403e2 	mov	x2, x20
ffff1b60:	94000048 	bl	0xffff1c80
ffff1b64:	35000220 	cbnz	w0, 0xffff1ba8
ffff1b68:	39400a80 	ldrb	w0, [x20, #2]
ffff1b6c:	35000080 	cbnz	w0, 0xffff1b7c
ffff1b70:	39400680 	ldrb	w0, [x20, #1]
ffff1b74:	350000e0 	cbnz	w0, 0xffff1b90
ffff1b78:	1400000c 	b	0xffff1ba8
ffff1b7c:	7103fc1f 	cmp	w0, #0xff
ffff1b80:	54000081 	b.ne	0xffff1b90  // b.any
ffff1b84:	39400680 	ldrb	w0, [x20, #1]
ffff1b88:	7103fc1f 	cmp	w0, #0xff
ffff1b8c:	540000e0 	b.eq	0xffff1ba8  // b.none
ffff1b90:	394007e0 	ldrb	w0, [sp, #1]
ffff1b94:	2a1f03f3 	mov	w19, wzr
ffff1b98:	7103fc1f 	cmp	w0, #0xff
ffff1b9c:	1a9f17e0 	cset	w0, eq  // eq = none
ffff1ba0:	12000000 	and	w0, w0, #0x1
ffff1ba4:	b90032a0 	str	w0, [x21, #48]
ffff1ba8:	aa1303e0 	mov	x0, x19
ffff1bac:	f94007f3 	ldr	x19, [sp, #8]
ffff1bb0:	a94157f4 	ldp	x20, x21, [sp, #16]
ffff1bb4:	a9427bfd 	ldp	x29, x30, [sp, #32]
ffff1bb8:	9100c3ff 	add	sp, sp, #0x30
ffff1bbc:	d65f03c0 	ret
ffff1bc0:	d10103ff 	sub	sp, sp, #0x40
ffff1bc4:	a9037bfd 	stp	x29, x30, [sp, #48]
ffff1bc8:	9100c3fd 	add	x29, sp, #0x30
ffff1bcc:	a90257f4 	stp	x20, x21, [sp, #32]
ffff1bd0:	f9000ff3 	str	x19, [sp, #24]
ffff1bd4:	f0ff84f5 	adrp	x21, 0xff090000
ffff1bd8:	b94032a0 	ldr	w0, [x21, #48]
ffff1bdc:	52800033 	mov	w19, #0x1                   	// #1
ffff1be0:	7100081f 	cmp	w0, #0x2
ffff1be4:	54000423 	b.cc	0xffff1c68  // b.lo, b.ul, b.last
ffff1be8:	52801fe0 	mov	w0, #0xff                  	// #255
ffff1bec:	b90013e0 	str	w0, [sp, #16]
ffff1bf0:	52800033 	mov	w19, #0x1                   	// #1
ffff1bf4:	910043e0 	add	x0, sp, #0x10
ffff1bf8:	52800021 	mov	w1, #0x1                   	// #1
ffff1bfc:	aa1f03e2 	mov	x2, xzr
ffff1c00:	aa1f03e3 	mov	x3, xzr
ffff1c04:	9400001f 	bl	0xffff1c80
ffff1c08:	52800040 	mov	w0, #0x2                   	// #2
ffff1c0c:	97fffabe 	bl	0xffff0704
ffff1c10:	528013e0 	mov	w0, #0x9f                  	// #159
ffff1c14:	b90017e0 	str	w0, [sp, #20]
ffff1c18:	910053e0 	add	x0, sp, #0x14
ffff1c1c:	910037f4 	add	x20, sp, #0xd
ffff1c20:	52800021 	mov	w1, #0x1                   	// #1
ffff1c24:	52800063 	mov	w3, #0x3                   	// #3
ffff1c28:	aa1403e2 	mov	x2, x20
ffff1c2c:	94000015 	bl	0xffff1c80
ffff1c30:	350001c0 	cbnz	w0, 0xffff1c68
ffff1c34:	39400a80 	ldrb	w0, [x20, #2]
ffff1c38:	35000080 	cbnz	w0, 0xffff1c48
ffff1c3c:	39400680 	ldrb	w0, [x20, #1]
ffff1c40:	350000e0 	cbnz	w0, 0xffff1c5c
ffff1c44:	14000009 	b	0xffff1c68
ffff1c48:	7103fc1f 	cmp	w0, #0xff
ffff1c4c:	54000081 	b.ne	0xffff1c5c  // b.any
ffff1c50:	39400680 	ldrb	w0, [x20, #1]
ffff1c54:	7103fc1f 	cmp	w0, #0xff
ffff1c58:	54000080 	b.eq	0xffff1c68  // b.none
ffff1c5c:	2a1f03f3 	mov	w19, wzr
ffff1c60:	52800020 	mov	w0, #0x1                   	// #1
ffff1c64:	b90032a0 	str	w0, [x21, #48]
ffff1c68:	aa1303e0 	mov	x0, x19
ffff1c6c:	f9400ff3 	ldr	x19, [sp, #24]
ffff1c70:	a94257f4 	ldp	x20, x21, [sp, #32]
ffff1c74:	a9437bfd 	ldp	x29, x30, [sp, #48]
ffff1c78:	910103ff 	add	sp, sp, #0x40
ffff1c7c:	d65f03c0 	ret
ffff1c80:	d10183ff 	sub	sp, sp, #0x60
ffff1c84:	a9057bfd 	stp	x29, x30, [sp, #80]
ffff1c88:	910143fd 	add	x29, sp, #0x50
ffff1c8c:	a90473fb 	stp	x27, x28, [sp, #64]
ffff1c90:	a9036bf9 	stp	x25, x26, [sp, #48]
ffff1c94:	a90263f7 	stp	x23, x24, [sp, #32]
ffff1c98:	a9015bf5 	stp	x21, x22, [sp, #16]
ffff1c9c:	a90053f3 	stp	x19, x20, [sp]
ffff1ca0:	aa0303f3 	mov	x19, x3
ffff1ca4:	aa0203f4 	mov	x20, x2
ffff1ca8:	aa0103f6 	mov	x22, x1
ffff1cac:	aa0003f5 	mov	x21, x0
ffff1cb0:	f0000000 	adrp	x0, 0xffff4000
ffff1cb4:	b94a7418 	ldr	w24, [x0, #2676]
ffff1cb8:	f0000000 	adrp	x0, 0xffff4000
ffff1cbc:	b94a7819 	ldr	w25, [x0, #2680]
ffff1cc0:	52800020 	mov	w0, #0x1                   	// #1
ffff1cc4:	b9000300 	str	w0, [x24]
ffff1cc8:	b9000320 	str	w0, [x25]
ffff1ccc:	52801ffa 	mov	w26, #0xff                  	// #255
ffff1cd0:	2a1303fb 	mov	w27, w19
ffff1cd4:	35000116 	cbnz	w22, 0xffff1cf4
ffff1cd8:	340004bb 	cbz	w27, 0xffff1d6c
ffff1cdc:	f0000000 	adrp	x0, 0xffff4000
ffff1ce0:	b94a7c00 	ldr	w0, [x0, #2684]
ffff1ce4:	2a1f03f6 	mov	w22, wzr
ffff1ce8:	b900001a 	str	w26, [x0]
ffff1cec:	5100077b 	sub	w27, w27, #0x1
ffff1cf0:	14000007 	b	0xffff1d0c
ffff1cf4:	b94002a0 	ldr	w0, [x21]
ffff1cf8:	f0000001 	adrp	x1, 0xffff4000
ffff1cfc:	b94a7c21 	ldr	w1, [x1, #2684]
ffff1d00:	b9000020 	str	w0, [x1]
ffff1d04:	510006d6 	sub	w22, w22, #0x1
ffff1d08:	910012b5 	add	x21, x21, #0x4
ffff1d0c:	2a1f03fc 	mov	w28, wzr
ffff1d10:	f0000000 	adrp	x0, 0xffff4000
ffff1d14:	b94a8000 	ldr	w0, [x0, #2688]
ffff1d18:	b9400000 	ldr	w0, [x0]
ffff1d1c:	36180100 	tbz	w0, #3, 0xffff1d3c
ffff1d20:	52800037 	mov	w23, #0x1                   	// #1
ffff1d24:	52800020 	mov	w0, #0x1                   	// #1
ffff1d28:	97fffa62 	bl	0xffff06b0
ffff1d2c:	1100079c 	add	w28, w28, #0x1
ffff1d30:	71000b9f 	cmp	w28, #0x2
ffff1d34:	54fffee3 	b.cc	0xffff1d10  // b.lo, b.ul, b.last
ffff1d38:	1400000e 	b	0xffff1d70
ffff1d3c:	f0000000 	adrp	x0, 0xffff4000
ffff1d40:	b94a8400 	ldr	w0, [x0, #2692]
ffff1d44:	b9400000 	ldr	w0, [x0]
ffff1d48:	6b33437f 	cmp	w27, w19, uxtw
ffff1d4c:	54000082 	b.cs	0xffff1d5c  // b.hs, b.nlast
ffff1d50:	91000681 	add	x1, x20, #0x1
ffff1d54:	39000280 	strb	w0, [x20]
ffff1d58:	aa0103f4 	mov	x20, x1
ffff1d5c:	52800037 	mov	w23, #0x1                   	// #1
ffff1d60:	71000b9f 	cmp	w28, #0x2
ffff1d64:	54fffb83 	b.cc	0xffff1cd4  // b.lo, b.ul, b.last
ffff1d68:	14000002 	b	0xffff1d70
ffff1d6c:	2a1f03f7 	mov	w23, wzr
ffff1d70:	b900033f 	str	wzr, [x25]
ffff1d74:	b900031f 	str	wzr, [x24]
ffff1d78:	52801040 	mov	w0, #0x82                  	// #130
ffff1d7c:	97fffa4d 	bl	0xffff06b0
ffff1d80:	aa1703e0 	mov	x0, x23
ffff1d84:	a94053f3 	ldp	x19, x20, [sp]
ffff1d88:	a9415bf5 	ldp	x21, x22, [sp, #16]
ffff1d8c:	a94263f7 	ldp	x23, x24, [sp, #32]
ffff1d90:	a9436bf9 	ldp	x25, x26, [sp, #48]
ffff1d94:	a94473fb 	ldp	x27, x28, [sp, #64]
ffff1d98:	a9457bfd 	ldp	x29, x30, [sp, #80]
ffff1d9c:	910183ff 	add	sp, sp, #0x60
ffff1da0:	d65f03c0 	ret
ffff1da4:	d10203ff 	sub	sp, sp, #0x80
ffff1da8:	a9077bfd 	stp	x29, x30, [sp, #112]
ffff1dac:	9101c3fd 	add	x29, sp, #0x70
ffff1db0:	a9066bf9 	stp	x25, x26, [sp, #96]
ffff1db4:	a90563f7 	stp	x23, x24, [sp, #80]
ffff1db8:	a9045bf5 	stp	x21, x22, [sp, #64]
ffff1dbc:	a90353f3 	stp	x19, x20, [sp, #48]
ffff1dc0:	f0ff84f9 	adrp	x25, 0xff090000
ffff1dc4:	b9403323 	ldr	w3, [x25, #48]
ffff1dc8:	aa0203f3 	mov	x19, x2
ffff1dcc:	aa0103f4 	mov	x20, x1
ffff1dd0:	aa0003f5 	mov	x21, x0
ffff1dd4:	52800036 	mov	w22, #0x1                   	// #1
ffff1dd8:	7100047f 	cmp	w3, #0x1
ffff1ddc:	54000868 	b.hi	0xffff1ee8  // b.pmore
ffff1de0:	340004c3 	cbz	w3, 0xffff1e78
ffff1de4:	52800260 	mov	w0, #0x13                  	// #19
ffff1de8:	b90013e0 	str	w0, [sp, #16]
ffff1dec:	53125aa0 	ubfx	w0, w21, #18, #5
ffff1df0:	910043f8 	add	x24, sp, #0x10
ffff1df4:	b9000700 	str	w0, [x24, #4]
ffff1df8:	530a46a0 	ubfx	w0, w21, #10, #8
ffff1dfc:	b9000b00 	str	w0, [x24, #8]
ffff1e00:	530226a0 	ubfx	w0, w21, #2, #8
ffff1e04:	b9000f00 	str	w0, [x24, #12]
ffff1e08:	52800081 	mov	w1, #0x4                   	// #4
ffff1e0c:	aa1803e0 	mov	x0, x24
ffff1e10:	aa1f03e2 	mov	x2, xzr
ffff1e14:	aa1f03e3 	mov	x3, xzr
ffff1e18:	97ffff9a 	bl	0xffff1c80
ffff1e1c:	35000660 	cbnz	w0, 0xffff1ee8
ffff1e20:	2a1f03fa 	mov	w26, wzr
ffff1e24:	91002317 	add	x23, x24, #0x8
ffff1e28:	d2801800 	mov	x0, #0xc0                  	// #192
ffff1e2c:	b9000700 	str	w0, [x24, #4]
ffff1e30:	d28001e0 	mov	x0, #0xf                   	// #15
ffff1e34:	b90013e0 	str	w0, [sp, #16]
ffff1e38:	52800036 	mov	w22, #0x1                   	// #1
ffff1e3c:	910043f8 	add	x24, sp, #0x10
ffff1e40:	91003fe2 	add	x2, sp, #0xf
ffff1e44:	52800041 	mov	w1, #0x2                   	// #2
ffff1e48:	52800023 	mov	w3, #0x1                   	// #1
ffff1e4c:	aa1803e0 	mov	x0, x24
ffff1e50:	97ffff8c 	bl	0xffff1c80
ffff1e54:	350004a0 	cbnz	w0, 0xffff1ee8
ffff1e58:	39403fe0 	ldrb	w0, [sp, #15]
ffff1e5c:	36000240 	tbz	w0, #0, 0xffff1ea4
ffff1e60:	1100075a 	add	w26, w26, #0x1
ffff1e64:	71004f5f 	cmp	w26, #0x13
ffff1e68:	54fffe89 	b.ls	0xffff1e38  // b.plast
ffff1e6c:	52800040 	mov	w0, #0x2                   	// #2
ffff1e70:	b9003320 	str	w0, [x25, #48]
ffff1e74:	1400001d 	b	0xffff1ee8
ffff1e78:	52800060 	mov	w0, #0x3                   	// #3
ffff1e7c:	b90013e0 	str	w0, [sp, #16]
ffff1e80:	53073aa1 	ubfx	w1, w21, #7, #8
ffff1e84:	910043e0 	add	x0, sp, #0x10
ffff1e88:	b9000401 	str	w1, [x0, #4]
ffff1e8c:	52801fc1 	mov	w1, #0xfe                  	// #254
ffff1e90:	0a150421 	and	w1, w1, w21, lsl #1
ffff1e94:	b9000801 	str	w1, [x0, #8]
ffff1e98:	b9000c1f 	str	wzr, [x0, #12]
ffff1e9c:	52800081 	mov	w1, #0x4                   	// #4
ffff1ea0:	1400000e 	b	0xffff1ed8
ffff1ea4:	52800076 	mov	w22, #0x3                   	// #3
ffff1ea8:	b90013f6 	str	w22, [sp, #16]
ffff1eac:	528000c0 	mov	w0, #0x6                   	// #6
ffff1eb0:	0a150400 	and	w0, w0, w21, lsl #1
ffff1eb4:	b9000700 	str	w0, [x24, #4]
ffff1eb8:	d2800302 	mov	x2, #0x18                  	// #24
ffff1ebc:	aa1703e0 	mov	x0, x23
ffff1ec0:	aa1f03e1 	mov	x1, xzr
ffff1ec4:	94000941 	bl	0xffff43c8
ffff1ec8:	f0ff84e0 	adrp	x0, 0xff090000
ffff1ecc:	b9403400 	ldr	w0, [x0, #52]
ffff1ed0:	0b400ec1 	add	w1, w22, w0, lsr #3
ffff1ed4:	aa1803e0 	mov	x0, x24
ffff1ed8:	aa1403e2 	mov	x2, x20
ffff1edc:	aa1303e3 	mov	x3, x19
ffff1ee0:	97ffff68 	bl	0xffff1c80
ffff1ee4:	aa0003f6 	mov	x22, x0
ffff1ee8:	aa1603e0 	mov	x0, x22
ffff1eec:	a94353f3 	ldp	x19, x20, [sp, #48]
ffff1ef0:	a9445bf5 	ldp	x21, x22, [sp, #64]
ffff1ef4:	a94563f7 	ldp	x23, x24, [sp, #80]
ffff1ef8:	a9466bf9 	ldp	x25, x26, [sp, #96]
ffff1efc:	a9477bfd 	ldp	x29, x30, [sp, #112]
ffff1f00:	910203ff 	add	sp, sp, #0x80
ffff1f04:	d65f03c0 	ret
ffff1f08:	d100c3ff 	sub	sp, sp, #0x30
ffff1f0c:	a9027bfd 	stp	x29, x30, [sp, #32]
ffff1f10:	910083fd 	add	x29, sp, #0x20
ffff1f14:	a9015bf5 	stp	x21, x22, [sp, #16]
ffff1f18:	a90053f3 	stp	x19, x20, [sp]
ffff1f1c:	aa0103f3 	mov	x19, x1
ffff1f20:	aa0003f4 	mov	x20, x0
ffff1f24:	53097c55 	lsr	w21, w2, #9
ffff1f28:	52800020 	mov	w0, #0x1                   	// #1
ffff1f2c:	34000195 	cbz	w21, 0xffff1f5c
ffff1f30:	2a1f03f6 	mov	w22, wzr
ffff1f34:	0b364280 	add	w0, w20, w22, uxtw
ffff1f38:	52810002 	mov	w2, #0x800                 	// #2048
ffff1f3c:	aa1303e1 	mov	x1, x19
ffff1f40:	97ffff99 	bl	0xffff1da4
ffff1f44:	350000c0 	cbnz	w0, 0xffff1f5c
ffff1f48:	91200273 	add	x19, x19, #0x800
ffff1f4c:	110012d6 	add	w22, w22, #0x4
ffff1f50:	6b3542df 	cmp	w22, w21, uxtw
ffff1f54:	54ffff03 	b.cc	0xffff1f34  // b.lo, b.ul, b.last
ffff1f58:	2a1f03e0 	mov	w0, wzr
ffff1f5c:	a94053f3 	ldp	x19, x20, [sp]
ffff1f60:	a9415bf5 	ldp	x21, x22, [sp, #16]
ffff1f64:	a9427bfd 	ldp	x29, x30, [sp, #32]
ffff1f68:	9100c3ff 	add	sp, sp, #0x30
ffff1f6c:	d65f03c0 	ret
ffff1f70:	d10103ff 	sub	sp, sp, #0x40
ffff1f74:	a9037bfd 	stp	x29, x30, [sp, #48]
ffff1f78:	9100c3fd 	add	x29, sp, #0x30
ffff1f7c:	a9025ff6 	stp	x22, x23, [sp, #32]
ffff1f80:	a90157f4 	stp	x20, x21, [sp, #16]
ffff1f84:	f90007f3 	str	x19, [sp, #8]
ffff1f88:	aa0203f4 	mov	x20, x2
ffff1f8c:	aa0103f6 	mov	x22, x1
ffff1f90:	f0ff84f7 	adrp	x23, 0xff090000
ffff1f94:	b90036ff 	str	wzr, [x23, #52]
ffff1f98:	52800033 	mov	w19, #0x1                   	// #1
ffff1f9c:	1ac02260 	lsl	w0, w19, w0
ffff1fa0:	128000e1 	mov	w1, #0xfffffff8            	// #-8
ffff1fa4:	0a000835 	and	w21, w1, w0, lsl #2
ffff1fa8:	52800402 	mov	w2, #0x20                  	// #32
ffff1fac:	aa1503e0 	mov	x0, x21
ffff1fb0:	aa1603e1 	mov	x1, x22
ffff1fb4:	97ffff7c 	bl	0xffff1da4
ffff1fb8:	35000400 	cbnz	w0, 0xffff2038
ffff1fbc:	2a1f03e0 	mov	w0, wzr
ffff1fc0:	2a1f03e1 	mov	w1, wzr
ffff1fc4:	91000ec2 	add	x2, x22, #0x3
ffff1fc8:	385fd043 	ldurb	w3, [x2, #-3]
ffff1fcc:	7100ec7f 	cmp	w3, #0x3b
ffff1fd0:	54000141 	b.ne	0xffff1ff8  // b.any
ffff1fd4:	385fe043 	ldurb	w3, [x2, #-2]
ffff1fd8:	7102307f 	cmp	w3, #0x8c
ffff1fdc:	540000e1 	b.ne	0xffff1ff8  // b.any
ffff1fe0:	385ff043 	ldurb	w3, [x2, #-1]
ffff1fe4:	7103707f 	cmp	w3, #0xdc
ffff1fe8:	54000081 	b.ne	0xffff1ff8  // b.any
ffff1fec:	39400043 	ldrb	w3, [x2]
ffff1ff0:	7103f07f 	cmp	w3, #0xfc
ffff1ff4:	540000e0 	b.eq	0xffff2010  // b.none
ffff1ff8:	11002021 	add	w1, w1, #0x8
ffff1ffc:	11000400 	add	w0, w0, #0x1
ffff2000:	91000442 	add	x2, x2, #0x1
ffff2004:	7100741f 	cmp	w0, #0x1d
ffff2008:	54fffe03 	b.cc	0xffff1fc8  // b.lo, b.ul, b.last
ffff200c:	1400000b 	b	0xffff2038
ffff2010:	b90036e1 	str	w1, [x23, #52]
ffff2014:	7100701f 	cmp	w0, #0x1c
ffff2018:	54000108 	b.hi	0xffff2038  // b.pmore
ffff201c:	52804002 	mov	w2, #0x200                 	// #512
ffff2020:	aa1503e0 	mov	x0, x21
ffff2024:	aa1603e1 	mov	x1, x22
ffff2028:	97ffff5f 	bl	0xffff1da4
ffff202c:	35000060 	cbnz	w0, 0xffff2038
ffff2030:	2a1f03f3 	mov	w19, wzr
ffff2034:	b9000295 	str	w21, [x20]
ffff2038:	aa1303e0 	mov	x0, x19
ffff203c:	f94007f3 	ldr	x19, [sp, #8]
ffff2040:	a94157f4 	ldp	x20, x21, [sp, #16]
ffff2044:	a9425ff6 	ldp	x22, x23, [sp, #32]
ffff2048:	a9437bfd 	ldp	x29, x30, [sp, #48]
ffff204c:	910103ff 	add	sp, sp, #0x40
ffff2050:	d65f03c0 	ret
ffff2054:	d100c3ff 	sub	sp, sp, #0x30
ffff2058:	a9027bfd 	stp	x29, x30, [sp, #32]
ffff205c:	910083fd 	add	x29, sp, #0x20
ffff2060:	a90157f4 	stp	x20, x21, [sp, #16]
ffff2064:	f90007f3 	str	x19, [sp, #8]
ffff2068:	aa0003f3 	mov	x19, x0
ffff206c:	2a1f03f5 	mov	w21, wzr
ffff2070:	b90003ff 	str	wzr, [sp]
ffff2074:	d0000000 	adrp	x0, 0xffff4000
ffff2078:	b94a8802 	ldr	w2, [x0, #2696]
ffff207c:	910003e3 	mov	x3, sp
ffff2080:	52840821 	mov	w1, #0x2041                	// #8257
ffff2084:	aa1303e0 	mov	x0, x19
ffff2088:	940001e9 	bl	0xffff282c
ffff208c:	aa0003e1 	mov	x1, x0
ffff2090:	52800020 	mov	w0, #0x1                   	// #1
ffff2094:	35000b21 	cbnz	w1, 0xffff21f8
ffff2098:	b94003e1 	ldr	w1, [sp]
ffff209c:	3100043f 	cmn	w1, #0x1
ffff20a0:	540000ed 	b.le	0xffff20bc
ffff20a4:	110006b5 	add	w21, w21, #0x1
ffff20a8:	53067ea0 	lsr	w0, w21, #6
ffff20ac:	7101f01f 	cmp	w0, #0x7c
ffff20b0:	54fffe29 	b.ls	0xffff2074  // b.plast
ffff20b4:	2a1f03f4 	mov	w20, wzr
ffff20b8:	1400000c 	b	0xffff20e8
ffff20bc:	d0000002 	adrp	x2, 0xffff4000
ffff20c0:	b94a8c42 	ldr	w2, [x2, #2700]
ffff20c4:	12187821 	and	w1, w1, #0xffffff7f
ffff20c8:	52800814 	mov	w20, #0x40                  	// #64
ffff20cc:	6b22403f 	cmp	w1, w2, uxtw
ffff20d0:	540000c0 	b.eq	0xffff20e8  // b.none
ffff20d4:	d0000002 	adrp	x2, 0xffff4000
ffff20d8:	b94a9042 	ldr	w2, [x2, #2704]
ffff20dc:	52800414 	mov	w20, #0x20                  	// #32
ffff20e0:	6b22403f 	cmp	w1, w2, uxtw
ffff20e4:	540008a1 	b.ne	0xffff21f8  // b.any
ffff20e8:	52840000 	mov	w0, #0x2000                	// #8192
ffff20ec:	5283e801 	mov	w1, #0x1f40                	// #8000
ffff20f0:	6b2142bf 	cmp	w21, w1, uxtw
ffff20f4:	54000820 	b.eq	0xffff21f8  // b.none
ffff20f8:	52843841 	mov	w1, #0x21c2                	// #8642
ffff20fc:	aa1303e0 	mov	x0, x19
ffff2100:	aa1f03e2 	mov	x2, xzr
ffff2104:	aa1f03e3 	mov	x3, xzr
ffff2108:	940001c9 	bl	0xffff282c
ffff210c:	35000760 	cbnz	w0, 0xffff21f8
ffff2110:	d0ff84f5 	adrp	x21, 0xff090000
ffff2114:	52800040 	mov	w0, #0x2                   	// #2
ffff2118:	7903e2a0 	strh	w0, [x21, #496]
ffff211c:	52842861 	mov	w1, #0x2143                	// #8515
ffff2120:	52a00042 	mov	w2, #0x20000               	// #131072
ffff2124:	aa1303e0 	mov	x0, x19
ffff2128:	aa1f03e3 	mov	x3, xzr
ffff212c:	940001c0 	bl	0xffff282c
ffff2130:	35000640 	cbnz	w0, 0xffff21f8
ffff2134:	aa1303e0 	mov	x0, x19
ffff2138:	940000d9 	bl	0xffff249c
ffff213c:	350005e0 	cbnz	w0, 0xffff21f8
ffff2140:	7943e2a0 	ldrh	w0, [x21, #496]
ffff2144:	d0000001 	adrp	x1, 0xffff4000
ffff2148:	b94a9421 	ldr	w1, [x1, #2708]
ffff214c:	53103c02 	lsl	w2, w0, #16
ffff2150:	910003e3 	mov	x3, sp
ffff2154:	aa1303e0 	mov	x0, x19
ffff2158:	940001b5 	bl	0xffff282c
ffff215c:	350004e0 	cbnz	w0, 0xffff21f8
ffff2160:	910003e3 	mov	x3, sp
ffff2164:	52842a01 	mov	w1, #0x2150                	// #8528
ffff2168:	52804002 	mov	w2, #0x200                 	// #512
ffff216c:	aa1303e0 	mov	x0, x19
ffff2170:	940001af 	bl	0xffff282c
ffff2174:	35000420 	cbnz	w0, 0xffff21f8
ffff2178:	b90007ff 	str	wzr, [sp, #4]
ffff217c:	7100027f 	cmp	w19, #0x0
ffff2180:	d2bfea40 	mov	x0, #0xff520000            	// #4283564032
ffff2184:	d2bfea01 	mov	x1, #0xff500000            	// #4283432960
ffff2188:	9a800020 	csel	x0, x1, x0, eq  // eq = none
ffff218c:	71000e7f 	cmp	w19, #0x3
ffff2190:	540000a1 	b.ne	0xffff21a4  // b.any
ffff2194:	d0000001 	adrp	x1, 0xffff4000
ffff2198:	b94a9c22 	ldr	w2, [x1, #2716]
ffff219c:	52a00021 	mov	w1, #0x10000               	// #65536
ffff21a0:	14000004 	b	0xffff21b0
ffff21a4:	d0000001 	adrp	x1, 0xffff4000
ffff21a8:	b94a9822 	ldr	w2, [x1, #2712]
ffff21ac:	52800021 	mov	w1, #0x1                   	// #1
ffff21b0:	b9001801 	str	w1, [x0, #24]
ffff21b4:	d0000000 	adrp	x0, 0xffff4000
ffff21b8:	b94aa001 	ldr	w1, [x0, #2720]
ffff21bc:	910013e3 	add	x3, sp, #0x4
ffff21c0:	aa1303e0 	mov	x0, x19
ffff21c4:	9400019a 	bl	0xffff282c
ffff21c8:	35000120 	cbnz	w0, 0xffff21ec
ffff21cc:	394013e0 	ldrb	w0, [sp, #4]
ffff21d0:	373800e0 	tbnz	w0, #7, 0xffff21ec
ffff21d4:	7943e2a0 	ldrh	w0, [x21, #496]
ffff21d8:	53103c02 	lsl	w2, w0, #16
ffff21dc:	910013e3 	add	x3, sp, #0x4
ffff21e0:	528029a1 	mov	w1, #0x14d                 	// #333
ffff21e4:	aa1303e0 	mov	x0, x19
ffff21e8:	94000191 	bl	0xffff282c
ffff21ec:	2a1f03e0 	mov	w0, wzr
ffff21f0:	d0ff84e1 	adrp	x1, 0xff090000
ffff21f4:	7903e434 	strh	w20, [x1, #498]
ffff21f8:	f94007f3 	ldr	x19, [sp, #8]
ffff21fc:	a94157f4 	ldp	x20, x21, [sp, #16]
ffff2200:	a9427bfd 	ldp	x29, x30, [sp, #32]
ffff2204:	9100c3ff 	add	sp, sp, #0x30
ffff2208:	d65f03c0 	ret
ffff220c:	d10043ff 	sub	sp, sp, #0x10
ffff2210:	a9007bfd 	stp	x29, x30, [sp]
ffff2214:	910003fd 	mov	x29, sp
ffff2218:	52800060 	mov	w0, #0x3                   	// #3
ffff221c:	94000188 	bl	0xffff283c
ffff2220:	52800060 	mov	w0, #0x3                   	// #3
ffff2224:	940001e3 	bl	0xffff29b0
ffff2228:	7100001f 	cmp	w0, #0x0
ffff222c:	1a9f07e0 	cset	w0, ne  // ne = any
ffff2230:	92400000 	and	x0, x0, #0x1
ffff2234:	a9407bfd 	ldp	x29, x30, [sp]
ffff2238:	910043ff 	add	sp, sp, #0x10
ffff223c:	d65f03c0 	ret
ffff2240:	d10103ff 	sub	sp, sp, #0x40
ffff2244:	a9037bfd 	stp	x29, x30, [sp, #48]
ffff2248:	9100c3fd 	add	x29, sp, #0x30
ffff224c:	a9025bf5 	stp	x21, x22, [sp, #32]
ffff2250:	a90153f3 	stp	x19, x20, [sp, #16]
ffff2254:	aa0103f4 	mov	x20, x1
ffff2258:	aa0003f3 	mov	x19, x0
ffff225c:	2a1f03f6 	mov	w22, wzr
ffff2260:	d0000000 	adrp	x0, 0xffff4000
ffff2264:	b94aa400 	ldr	w0, [x0, #2724]
ffff2268:	7100069f 	cmp	w20, #0x1
ffff226c:	321123e1 	mov	w1, #0xff8000              	// #16744448
ffff2270:	1a810015 	csel	w21, w0, w1, eq  // eq = none
ffff2274:	b9000fff 	str	wzr, [sp, #12]
ffff2278:	910033e3 	add	x3, sp, #0xc
ffff227c:	52840d21 	mov	w1, #0x2069                	// #8297
ffff2280:	aa1303e0 	mov	x0, x19
ffff2284:	aa1503e2 	mov	x2, x21
ffff2288:	94000059 	bl	0xffff23ec
ffff228c:	aa0003e1 	mov	x1, x0
ffff2290:	52800020 	mov	w0, #0x1                   	// #1
ffff2294:	35000a21 	cbnz	w1, 0xffff23d8
ffff2298:	b9400fe0 	ldr	w0, [sp, #12]
ffff229c:	3100041f 	cmn	w0, #0x1
ffff22a0:	540000cd 	b.le	0xffff22b8
ffff22a4:	110006d6 	add	w22, w22, #0x1
ffff22a8:	711fdedf 	cmp	w22, #0x7f7
ffff22ac:	54fffe69 	b.ls	0xffff2278  // b.plast
ffff22b0:	2a1f03f5 	mov	w21, wzr
ffff22b4:	1400000f 	b	0xffff22f0
ffff22b8:	52800215 	mov	w21, #0x10                  	// #16
ffff22bc:	7100069f 	cmp	w20, #0x1
ffff22c0:	54000181 	b.ne	0xffff22f0  // b.any
ffff22c4:	d0000001 	adrp	x1, 0xffff4000
ffff22c8:	b94aa821 	ldr	w1, [x1, #2728]
ffff22cc:	12187800 	and	w0, w0, #0xffffff7f
ffff22d0:	52800095 	mov	w21, #0x4                   	// #4
ffff22d4:	6b21401f 	cmp	w0, w1, uxtw
ffff22d8:	540000c0 	b.eq	0xffff22f0  // b.none
ffff22dc:	d0000001 	adrp	x1, 0xffff4000
ffff22e0:	b94aac21 	ldr	w1, [x1, #2732]
ffff22e4:	6b21401f 	cmp	w0, w1, uxtw
ffff22e8:	52800100 	mov	w0, #0x8                   	// #8
ffff22ec:	1a9f0015 	csel	w21, w0, wzr, eq  // eq = none
ffff22f0:	52840000 	mov	w0, #0x2000                	// #8192
ffff22f4:	711fe2df 	cmp	w22, #0x7f8
ffff22f8:	54000700 	b.eq	0xffff23d8  // b.none
ffff22fc:	52843841 	mov	w1, #0x21c2                	// #8642
ffff2300:	aa1303e0 	mov	x0, x19
ffff2304:	aa1f03e2 	mov	x2, xzr
ffff2308:	aa1f03e3 	mov	x3, xzr
ffff230c:	94000148 	bl	0xffff282c
ffff2310:	35000640 	cbnz	w0, 0xffff23d8
ffff2314:	910033f4 	add	x20, sp, #0xc
ffff2318:	52842861 	mov	w1, #0x2143                	// #8515
ffff231c:	aa1303e0 	mov	x0, x19
ffff2320:	aa1f03e2 	mov	x2, xzr
ffff2324:	aa1403e3 	mov	x3, x20
ffff2328:	94000141 	bl	0xffff282c
ffff232c:	35000560 	cbnz	w0, 0xffff23d8
ffff2330:	79400680 	ldrh	w0, [x20, #2]
ffff2334:	d0ff84f4 	adrp	x20, 0xff090000
ffff2338:	7903e280 	strh	w0, [x20, #496]
ffff233c:	aa1303e0 	mov	x0, x19
ffff2340:	94000057 	bl	0xffff249c
ffff2344:	350004a0 	cbnz	w0, 0xffff23d8
ffff2348:	7943e280 	ldrh	w0, [x20, #496]
ffff234c:	d0000001 	adrp	x1, 0xffff4000
ffff2350:	b94ab021 	ldr	w1, [x1, #2736]
ffff2354:	53103c02 	lsl	w2, w0, #16
ffff2358:	aa1303e0 	mov	x0, x19
ffff235c:	aa1f03e3 	mov	x3, xzr
ffff2360:	94000133 	bl	0xffff282c
ffff2364:	350003a0 	cbnz	w0, 0xffff23d8
ffff2368:	52842a01 	mov	w1, #0x2150                	// #8528
ffff236c:	52804002 	mov	w2, #0x200                 	// #512
ffff2370:	aa1303e0 	mov	x0, x19
ffff2374:	aa1f03e3 	mov	x3, xzr
ffff2378:	9400012d 	bl	0xffff282c
ffff237c:	350002e0 	cbnz	w0, 0xffff23d8
ffff2380:	52842d41 	mov	w1, #0x216a                	// #8554
ffff2384:	aa1303e0 	mov	x0, x19
ffff2388:	aa1f03e2 	mov	x2, xzr
ffff238c:	aa1f03e3 	mov	x3, xzr
ffff2390:	94000017 	bl	0xffff23ec
ffff2394:	35000220 	cbnz	w0, 0xffff23d8
ffff2398:	528428c1 	mov	w1, #0x2146                	// #8518
ffff239c:	52800042 	mov	w2, #0x2                   	// #2
ffff23a0:	aa1303e0 	mov	x0, x19
ffff23a4:	aa1f03e3 	mov	x3, xzr
ffff23a8:	94000011 	bl	0xffff23ec
ffff23ac:	35000100 	cbnz	w0, 0xffff23cc
ffff23b0:	7100027f 	cmp	w19, #0x0
ffff23b4:	d2bfea40 	mov	x0, #0xff520000            	// #4283564032
ffff23b8:	d2bfea01 	mov	x1, #0xff500000            	// #4283432960
ffff23bc:	9a800020 	csel	x0, x1, x0, eq  // eq = none
ffff23c0:	b27d0400 	orr	x0, x0, #0x18
ffff23c4:	52800021 	mov	w1, #0x1                   	// #1
ffff23c8:	b9000001 	str	w1, [x0]
ffff23cc:	2a1f03e0 	mov	w0, wzr
ffff23d0:	d0ff84e1 	adrp	x1, 0xff090000
ffff23d4:	7903e435 	strh	w21, [x1, #498]
ffff23d8:	a94153f3 	ldp	x19, x20, [sp, #16]
ffff23dc:	a9425bf5 	ldp	x21, x22, [sp, #32]
ffff23e0:	a9437bfd 	ldp	x29, x30, [sp, #48]
ffff23e4:	910103ff 	add	sp, sp, #0x40
ffff23e8:	d65f03c0 	ret
ffff23ec:	d10103ff 	sub	sp, sp, #0x40
ffff23f0:	a9037bfd 	stp	x29, x30, [sp, #48]
ffff23f4:	9100c3fd 	add	x29, sp, #0x30
ffff23f8:	a9025bf5 	stp	x21, x22, [sp, #32]
ffff23fc:	a90153f3 	stp	x19, x20, [sp, #16]
ffff2400:	d0ff84e4 	adrp	x4, 0xff090000
ffff2404:	7943e084 	ldrh	w4, [x4, #496]
ffff2408:	aa0303f3 	mov	x19, x3
ffff240c:	aa0203f4 	mov	x20, x2
ffff2410:	aa0103f5 	mov	x21, x1
ffff2414:	aa0003f6 	mov	x22, x0
ffff2418:	b9000fff 	str	wzr, [sp, #12]
ffff241c:	53103c82 	lsl	w2, w4, #16
ffff2420:	910033e3 	add	x3, sp, #0xc
ffff2424:	52842ee1 	mov	w1, #0x2177                	// #8567
ffff2428:	94000101 	bl	0xffff282c
ffff242c:	35000140 	cbnz	w0, 0xffff2454
ffff2430:	394033e0 	ldrb	w0, [sp, #12]
ffff2434:	362800e0 	tbz	w0, #5, 0xffff2450
ffff2438:	aa1603e0 	mov	x0, x22
ffff243c:	aa1503e1 	mov	x1, x21
ffff2440:	aa1403e2 	mov	x2, x20
ffff2444:	aa1303e3 	mov	x3, x19
ffff2448:	940000f9 	bl	0xffff282c
ffff244c:	14000002 	b	0xffff2454
ffff2450:	2a1f03e0 	mov	w0, wzr
ffff2454:	a94153f3 	ldp	x19, x20, [sp, #16]
ffff2458:	a9425bf5 	ldp	x21, x22, [sp, #32]
ffff245c:	a9437bfd 	ldp	x29, x30, [sp, #48]
ffff2460:	910103ff 	add	sp, sp, #0x40
ffff2464:	d65f03c0 	ret
ffff2468:	d10043ff 	sub	sp, sp, #0x10
ffff246c:	a9007bfd 	stp	x29, x30, [sp]
ffff2470:	910003fd 	mov	x29, sp
ffff2474:	aa1f03e0 	mov	x0, xzr
ffff2478:	940000f1 	bl	0xffff283c
ffff247c:	aa1f03e0 	mov	x0, xzr
ffff2480:	9400014c 	bl	0xffff29b0
ffff2484:	7100001f 	cmp	w0, #0x0
ffff2488:	1a9f07e0 	cset	w0, ne  // ne = any
ffff248c:	92400000 	and	x0, x0, #0x1
ffff2490:	a9407bfd 	ldp	x29, x30, [sp]
ffff2494:	910043ff 	add	sp, sp, #0x10
ffff2498:	d65f03c0 	ret
ffff249c:	d100c3ff 	sub	sp, sp, #0x30
ffff24a0:	a9027bfd 	stp	x29, x30, [sp, #32]
ffff24a4:	910083fd 	add	x29, sp, #0x20
ffff24a8:	a90157f4 	stp	x20, x21, [sp, #16]
ffff24ac:	f90007f3 	str	x19, [sp, #8]
ffff24b0:	aa0003f5 	mov	x21, x0
ffff24b4:	710002bf 	cmp	w21, #0x0
ffff24b8:	d2bfea40 	mov	x0, #0xff520000            	// #4283564032
ffff24bc:	d2bfea01 	mov	x1, #0xff500000            	// #4283432960
ffff24c0:	d0000002 	adrp	x2, 0xffff4000
ffff24c4:	b94ab453 	ldr	w19, [x2, #2740]
ffff24c8:	9a800034 	csel	x20, x1, x0, eq  // eq = none
ffff24cc:	b27c0280 	orr	x0, x20, #0x10
ffff24d0:	b900001f 	str	wzr, [x0]
ffff24d4:	aa1403e0 	mov	x0, x20
ffff24d8:	aa1303e1 	mov	x1, x19
ffff24dc:	9400001b 	bl	0xffff2548
ffff24e0:	aa0003e1 	mov	x1, x0
ffff24e4:	52820000 	mov	w0, #0x1000                	// #4096
ffff24e8:	35000261 	cbnz	w1, 0xffff2534
ffff24ec:	d0000000 	adrp	x0, 0xffff4000
ffff24f0:	b94ab800 	ldr	w0, [x0, #2744]
ffff24f4:	34000095 	cbz	w21, 0xffff2504
ffff24f8:	d0000001 	adrp	x1, 0xffff4000
ffff24fc:	b94abc21 	ldr	w1, [x1, #2748]
ffff2500:	14000003 	b	0xffff250c
ffff2504:	d0000001 	adrp	x1, 0xffff4000
ffff2508:	b94ac021 	ldr	w1, [x1, #2752]
ffff250c:	b9000020 	str	w0, [x1]
ffff2510:	b9000a9f 	str	wzr, [x20, #8]
ffff2514:	52800020 	mov	w0, #0x1                   	// #1
ffff2518:	b9001280 	str	w0, [x20, #16]
ffff251c:	aa1403e0 	mov	x0, x20
ffff2520:	aa1303e1 	mov	x1, x19
ffff2524:	94000009 	bl	0xffff2548
ffff2528:	7100001f 	cmp	w0, #0x0
ffff252c:	52820000 	mov	w0, #0x1000                	// #4096
ffff2530:	1a8003e0 	csel	w0, wzr, w0, eq  // eq = none
ffff2534:	f94007f3 	ldr	x19, [sp, #8]
ffff2538:	a94157f4 	ldp	x20, x21, [sp, #16]
ffff253c:	a9427bfd 	ldp	x29, x30, [sp, #32]
ffff2540:	9100c3ff 	add	sp, sp, #0x30
ffff2544:	d65f03c0 	ret
ffff2548:	d10083ff 	sub	sp, sp, #0x20
ffff254c:	a9017bfd 	stp	x29, x30, [sp, #16]
ffff2550:	910043fd 	add	x29, sp, #0x10
ffff2554:	f90007f3 	str	x19, [sp, #8]
ffff2558:	aa0003f3 	mov	x19, x0
ffff255c:	52807d00 	mov	w0, #0x3e8                 	// #1000
ffff2560:	b90007e0 	str	w0, [sp, #4]
ffff2564:	b9002e61 	str	w1, [x19, #44]
ffff2568:	b9402e60 	ldr	w0, [x19, #44]
ffff256c:	3100041f 	cmn	w0, #0x1
ffff2570:	5400016c 	b.gt	0xffff259c
ffff2574:	b94007e0 	ldr	w0, [sp, #4]
ffff2578:	51000401 	sub	w1, w0, #0x1
ffff257c:	b90007e1 	str	w1, [sp, #4]
ffff2580:	7100041f 	cmp	w0, #0x1
ffff2584:	540000cb 	b.lt	0xffff259c  // b.tstop
ffff2588:	52800020 	mov	w0, #0x1                   	// #1
ffff258c:	97fff849 	bl	0xffff06b0
ffff2590:	b9402e60 	ldr	w0, [x19, #44]
ffff2594:	7100001f 	cmp	w0, #0x0
ffff2598:	54fffeeb 	b.lt	0xffff2574  // b.tstop
ffff259c:	b94007e0 	ldr	w0, [sp, #4]
ffff25a0:	7100001f 	cmp	w0, #0x0
ffff25a4:	52820000 	mov	w0, #0x1000                	// #4096
ffff25a8:	1a9f0000 	csel	w0, w0, wzr, eq  // eq = none
ffff25ac:	f94007f3 	ldr	x19, [sp, #8]
ffff25b0:	a9417bfd 	ldp	x29, x30, [sp, #16]
ffff25b4:	910083ff 	add	sp, sp, #0x20
ffff25b8:	d65f03c0 	ret
ffff25bc:	d10183ff 	sub	sp, sp, #0x60
ffff25c0:	a9057bfd 	stp	x29, x30, [sp, #80]
ffff25c4:	910143fd 	add	x29, sp, #0x50
ffff25c8:	a9046ffa 	stp	x26, x27, [sp, #64]
ffff25cc:	a90367f8 	stp	x24, x25, [sp, #48]
ffff25d0:	a9025ff6 	stp	x22, x23, [sp, #32]
ffff25d4:	a90157f4 	stp	x20, x21, [sp, #16]
ffff25d8:	f90007f3 	str	x19, [sp, #8]
ffff25dc:	aa0603f6 	mov	x22, x6
ffff25e0:	aa0503f7 	mov	x23, x5
ffff25e4:	aa0403fa 	mov	x26, x4
ffff25e8:	aa0303f3 	mov	x19, x3
ffff25ec:	aa0203f9 	mov	x25, x2
ffff25f0:	aa0103f4 	mov	x20, x1
ffff25f4:	7100001f 	cmp	w0, #0x0
ffff25f8:	d0000000 	adrp	x0, 0xffff4000
ffff25fc:	b94ac400 	ldr	w0, [x0, #2756]
ffff2600:	d0000001 	adrp	x1, 0xffff4000
ffff2604:	b94ac821 	ldr	w1, [x1, #2760]
ffff2608:	d2bfea42 	mov	x2, #0xff520000            	// #4283564032
ffff260c:	d2bfea03 	mov	x3, #0xff500000            	// #4283432960
ffff2610:	9a820075 	csel	x21, x3, x2, eq  // eq = none
ffff2614:	9a80003b 	csel	x27, x1, x0, eq  // eq = none
ffff2618:	36680094 	tbz	w20, #13, 0xffff2628
ffff261c:	b9404aa0 	ldr	w0, [x21, #72]
ffff2620:	52808018 	mov	w24, #0x400                 	// #1024
ffff2624:	37480d00 	tbnz	w0, #9, 0xffff27c4
ffff2628:	b9402ea0 	ldr	w0, [x21, #44]
ffff262c:	52820018 	mov	w24, #0x1000                	// #4096
ffff2630:	7100001f 	cmp	w0, #0x0
ffff2634:	54000c8b 	b.lt	0xffff27c4  // b.tstop
ffff2638:	aa1503e0 	mov	x0, x21
ffff263c:	9400006b 	bl	0xffff27e8
ffff2640:	36480074 	tbz	w20, #9, 0xffff264c
ffff2644:	b9001eba 	str	w26, [x21, #28]
ffff2648:	b90022b7 	str	w23, [x21, #32]
ffff264c:	b9002ab9 	str	w25, [x21, #40]
ffff2650:	12b40020 	mov	w0, #0x5ffeffff            	// #1610547199
ffff2654:	0a000280 	and	w0, w20, w0
ffff2658:	52b40001 	mov	w1, #0xa0000000            	// #-1610612736
ffff265c:	2a010001 	orr	w1, w0, w1
ffff2660:	aa1503e0 	mov	x0, x21
ffff2664:	97ffffb9 	bl	0xffff2548
ffff2668:	35000ae0 	cbnz	w0, 0xffff27c4
ffff266c:	52807d00 	mov	w0, #0x3e8                 	// #1000
ffff2670:	b90007e0 	str	w0, [sp, #4]
ffff2674:	14000003 	b	0xffff2680
ffff2678:	52800020 	mov	w0, #0x1                   	// #1
ffff267c:	97fff80d 	bl	0xffff06b0
ffff2680:	b94046a0 	ldr	w0, [x21, #68]
ffff2684:	371000c0 	tbnz	w0, #2, 0xffff269c
ffff2688:	b94007e0 	ldr	w0, [sp, #4]
ffff268c:	51000401 	sub	w1, w0, #0x1
ffff2690:	b90007e1 	str	w1, [sp, #4]
ffff2694:	7100041f 	cmp	w0, #0x1
ffff2698:	54ffff0a 	b.ge	0xffff2678  // b.tcont
ffff269c:	52800080 	mov	w0, #0x4                   	// #4
ffff26a0:	b90046a0 	str	w0, [x21, #68]
ffff26a4:	36700074 	tbz	w20, #14, 0xffff26b0
ffff26a8:	aa1503e0 	mov	x0, x21
ffff26ac:	9400004f 	bl	0xffff27e8
ffff26b0:	b94046a0 	ldr	w0, [x21, #68]
ffff26b4:	364000a0 	tbz	w0, #8, 0xffff26c8
ffff26b8:	12800000 	mov	w0, #0xffffffff            	// #-1
ffff26bc:	b90046a0 	str	w0, [x21, #68]
ffff26c0:	52800418 	mov	w24, #0x20                  	// #32
ffff26c4:	14000040 	b	0xffff27c4
ffff26c8:	12170280 	and	w0, w20, #0x200
ffff26cc:	34000500 	cbz	w0, 0xffff276c
ffff26d0:	b90007ff 	str	wzr, [sp, #4]
ffff26d4:	53027ef8 	lsr	w24, w23, #2
ffff26d8:	52945017 	mov	w23, #0xa280                	// #41600
ffff26dc:	34000498 	cbz	w24, 0xffff276c
ffff26e0:	b94046a0 	ldr	w0, [x21, #68]
ffff26e4:	0a170000 	and	w0, w0, w23
ffff26e8:	350003a0 	cbnz	w0, 0xffff275c
ffff26ec:	b9404aa0 	ldr	w0, [x21, #72]
ffff26f0:	371001a0 	tbnz	w0, #2, 0xffff2724
ffff26f4:	b9400360 	ldr	w0, [x27]
ffff26f8:	b90002c0 	str	w0, [x22]
ffff26fc:	b90007ff 	str	wzr, [sp, #4]
ffff2700:	b9404aa1 	ldr	w1, [x21, #72]
ffff2704:	2a1803e0 	mov	w0, w24
ffff2708:	910012d6 	add	x22, x22, #0x4
ffff270c:	51000418 	sub	w24, w0, #0x1
ffff2710:	37100061 	tbnz	w1, #2, 0xffff271c
ffff2714:	7100041f 	cmp	w0, #0x1
ffff2718:	54fffee1 	b.ne	0xffff26f4  // b.any
ffff271c:	7100041f 	cmp	w0, #0x1
ffff2720:	54000160 	b.eq	0xffff274c  // b.none
ffff2724:	52800020 	mov	w0, #0x1                   	// #1
ffff2728:	97fff7e2 	bl	0xffff06b0
ffff272c:	b94007e0 	ldr	w0, [sp, #4]
ffff2730:	d0000001 	adrp	x1, 0xffff4000
ffff2734:	b94acc21 	ldr	w1, [x1, #2764]
ffff2738:	11000402 	add	w2, w0, #0x1
ffff273c:	b90007e2 	str	w2, [sp, #4]
ffff2740:	6b21401f 	cmp	w0, w1, uxtw
ffff2744:	54fffccb 	b.lt	0xffff26dc  // b.tstop
ffff2748:	14000005 	b	0xffff275c
ffff274c:	b94046a0 	ldr	w0, [x21, #68]
ffff2750:	52945001 	mov	w1, #0xa280                	// #41600
ffff2754:	0a010000 	and	w0, w0, w1
ffff2758:	340000a0 	cbz	w0, 0xffff276c
ffff275c:	12800000 	mov	w0, #0xffffffff            	// #-1
ffff2760:	b90046a0 	str	w0, [x21, #68]
ffff2764:	52a01018 	mov	w24, #0x800000              	// #8388608
ffff2768:	14000017 	b	0xffff27c4
ffff276c:	12800000 	mov	w0, #0xffffffff            	// #-1
ffff2770:	b90046a0 	str	w0, [x21, #68]
ffff2774:	368001f4 	tbz	w20, #16, 0xffff27b0
ffff2778:	b90007ff 	str	wzr, [sp, #4]
ffff277c:	b9404aa0 	ldr	w0, [x21, #72]
ffff2780:	36480180 	tbz	w0, #9, 0xffff27b0
ffff2784:	52800020 	mov	w0, #0x1                   	// #1
ffff2788:	97fff7ca 	bl	0xffff06b0
ffff278c:	b94007e0 	ldr	w0, [sp, #4]
ffff2790:	d0000001 	adrp	x1, 0xffff4000
ffff2794:	b94ad021 	ldr	w1, [x1, #2768]
ffff2798:	11000402 	add	w2, w0, #0x1
ffff279c:	b90007e2 	str	w2, [sp, #4]
ffff27a0:	52808018 	mov	w24, #0x400                 	// #1024
ffff27a4:	6b21401f 	cmp	w0, w1, uxtw
ffff27a8:	54fffeab 	b.lt	0xffff277c  // b.tstop
ffff27ac:	14000002 	b	0xffff27b4
ffff27b0:	2a1f03f8 	mov	w24, wzr
ffff27b4:	36300094 	tbz	w20, #6, 0xffff27c4
ffff27b8:	b4000073 	cbz	x19, 0xffff27c4
ffff27bc:	b94032a0 	ldr	w0, [x21, #48]
ffff27c0:	b9000260 	str	w0, [x19]
ffff27c4:	aa1803e0 	mov	x0, x24
ffff27c8:	f94007f3 	ldr	x19, [sp, #8]
ffff27cc:	a94157f4 	ldp	x20, x21, [sp, #16]
ffff27d0:	a9425ff6 	ldp	x22, x23, [sp, #32]
ffff27d4:	a94367f8 	ldp	x24, x25, [sp, #48]
ffff27d8:	a9446ffa 	ldp	x26, x27, [sp, #64]
ffff27dc:	a9457bfd 	ldp	x29, x30, [sp, #80]
ffff27e0:	910183ff 	add	sp, sp, #0x60
ffff27e4:	d65f03c0 	ret
ffff27e8:	d10043ff 	sub	sp, sp, #0x10
ffff27ec:	b9404801 	ldr	w1, [x0, #72]
ffff27f0:	371001a1 	tbnz	w1, #2, 0xffff2824
ffff27f4:	b9400001 	ldr	w1, [x0]
ffff27f8:	321f0021 	orr	w1, w1, #0x2
ffff27fc:	b9000001 	str	w1, [x0]
ffff2800:	52827101 	mov	w1, #0x1388                	// #5000
ffff2804:	b9000fe1 	str	w1, [sp, #12]
ffff2808:	b9400001 	ldr	w1, [x0]
ffff280c:	360800c1 	tbz	w1, #1, 0xffff2824
ffff2810:	b9400fe1 	ldr	w1, [sp, #12]
ffff2814:	51000422 	sub	w2, w1, #0x1
ffff2818:	b9000fe2 	str	w2, [sp, #12]
ffff281c:	7100003f 	cmp	w1, #0x0
ffff2820:	54ffff4c 	b.gt	0xffff2808
ffff2824:	910043ff 	add	sp, sp, #0x10
ffff2828:	d65f03c0 	ret
ffff282c:	aa1f03e4 	mov	x4, xzr
ffff2830:	aa1f03e5 	mov	x5, xzr
ffff2834:	aa1f03e6 	mov	x6, xzr
ffff2838:	17ffff61 	b	0xffff25bc
ffff283c:	d10083ff 	sub	sp, sp, #0x20
ffff2840:	a9017bfd 	stp	x29, x30, [sp, #16]
ffff2844:	910043fd 	add	x29, sp, #0x10
ffff2848:	a90053f3 	stp	x19, x20, [sp]
ffff284c:	aa0003f3 	mov	x19, x0
ffff2850:	7100027f 	cmp	w19, #0x0
ffff2854:	d2bfea40 	mov	x0, #0xff520000            	// #4283564032
ffff2858:	d2bfea01 	mov	x1, #0xff500000            	// #4283432960
ffff285c:	9a800034 	csel	x20, x1, x0, eq  // eq = none
ffff2860:	d0000000 	adrp	x0, 0xffff4000
ffff2864:	b94ad400 	ldr	w0, [x0, #2772]
ffff2868:	34000273 	cbz	w19, 0xffff28b4
ffff286c:	d0000001 	adrp	x1, 0xffff4000
ffff2870:	b94ad821 	ldr	w1, [x1, #2776]
ffff2874:	b9000020 	str	w0, [x1]
ffff2878:	d0000000 	adrp	x0, 0xffff4000
ffff287c:	b94adc00 	ldr	w0, [x0, #2780]
ffff2880:	d0000001 	adrp	x1, 0xffff4000
ffff2884:	b94ae021 	ldr	w1, [x1, #2784]
ffff2888:	d0000002 	adrp	x2, 0xffff4000
ffff288c:	b94ae442 	ldr	w2, [x2, #2788]
ffff2890:	d0000003 	adrp	x3, 0xffff4000
ffff2894:	b94ae863 	ldr	w3, [x3, #2792]
ffff2898:	d0000004 	adrp	x4, 0xffff4000
ffff289c:	b94aec84 	ldr	w4, [x4, #2796]
ffff28a0:	d2bfe205 	mov	x5, #0xff100000            	// #4279238656
ffff28a4:	b90000a0 	str	w0, [x5]
ffff28a8:	b9000041 	str	w1, [x2]
ffff28ac:	b9000083 	str	w3, [x4]
ffff28b0:	14000011 	b	0xffff28f4
ffff28b4:	d0000001 	adrp	x1, 0xffff4000
ffff28b8:	b94af021 	ldr	w1, [x1, #2800]
ffff28bc:	b9000020 	str	w0, [x1]
ffff28c0:	d0000000 	adrp	x0, 0xffff4000
ffff28c4:	b94af400 	ldr	w0, [x0, #2804]
ffff28c8:	d0000001 	adrp	x1, 0xffff4000
ffff28cc:	b94af821 	ldr	w1, [x1, #2808]
ffff28d0:	b9000020 	str	w0, [x1]
ffff28d4:	d0000000 	adrp	x0, 0xffff4000
ffff28d8:	b94afc00 	ldr	w0, [x0, #2812]
ffff28dc:	d0000001 	adrp	x1, 0xffff4000
ffff28e0:	b94b0021 	ldr	w1, [x1, #2816]
ffff28e4:	320487e2 	mov	w2, #0x30003000            	// #805318656
ffff28e8:	b9000002 	str	w2, [x0]
ffff28ec:	52800040 	mov	w0, #0x2                   	// #2
ffff28f0:	b9000020 	str	w0, [x1]
ffff28f4:	52800020 	mov	w0, #0x1                   	// #1
ffff28f8:	97fff76e 	bl	0xffff06b0
ffff28fc:	d0ff84e0 	adrp	x0, 0xff090000
ffff2900:	b901f813 	str	w19, [x0, #504]
ffff2904:	71000e7f 	cmp	w19, #0x3
ffff2908:	1a9f17e0 	cset	w0, eq  // eq = none
ffff290c:	12000000 	and	w0, w0, #0x1
ffff2910:	b9000680 	str	w0, [x20, #4]
ffff2914:	52807d00 	mov	w0, #0x3e8                 	// #1000
ffff2918:	97fff766 	bl	0xffff06b0
ffff291c:	52800060 	mov	w0, #0x3                   	// #3
ffff2920:	b9000280 	str	w0, [x20]
ffff2924:	52800c80 	mov	w0, #0x64                  	// #100
ffff2928:	97fff762 	bl	0xffff06b0
ffff292c:	d0000000 	adrp	x0, 0xffff4000
ffff2930:	b94b0400 	ldr	w0, [x0, #2820]
ffff2934:	b9000a9f 	str	wzr, [x20, #8]
ffff2938:	52800021 	mov	w1, #0x1                   	// #1
ffff293c:	b9001281 	str	w1, [x20, #16]
ffff2940:	b9002e80 	str	w0, [x20, #44]
ffff2944:	b9402e80 	ldr	w0, [x20, #44]
ffff2948:	3100041f 	cmn	w0, #0x1
ffff294c:	5400016c 	b.gt	0xffff2978
ffff2950:	5284e1f3 	mov	w19, #0x270f                	// #9999
ffff2954:	52800020 	mov	w0, #0x1                   	// #1
ffff2958:	97fff756 	bl	0xffff06b0
ffff295c:	b9402e80 	ldr	w0, [x20, #44]
ffff2960:	3100041f 	cmn	w0, #0x1
ffff2964:	540000ac 	b.gt	0xffff2978
ffff2968:	51000660 	sub	w0, w19, #0x1
ffff296c:	7100027f 	cmp	w19, #0x0
ffff2970:	2a0003f3 	mov	w19, w0
ffff2974:	54ffff0c 	b.gt	0xffff2954
ffff2978:	52803e80 	mov	w0, #0x1f4                 	// #500
ffff297c:	97fff74d 	bl	0xffff06b0
ffff2980:	128017e0 	mov	w0, #0xffffff40            	// #-192
ffff2984:	d0000001 	adrp	x1, 0xffff4000
ffff2988:	b94b0821 	ldr	w1, [x1, #2824]
ffff298c:	b9001680 	str	w0, [x20, #20]
ffff2990:	b9004e81 	str	w1, [x20, #76]
ffff2994:	12800000 	mov	w0, #0xffffffff            	// #-1
ffff2998:	b9004680 	str	w0, [x20, #68]
ffff299c:	aa1f03e0 	mov	x0, xzr
ffff29a0:	a94053f3 	ldp	x19, x20, [sp]
ffff29a4:	a9417bfd 	ldp	x29, x30, [sp, #16]
ffff29a8:	910083ff 	add	sp, sp, #0x20
ffff29ac:	d65f03c0 	ret
ffff29b0:	d10083ff 	sub	sp, sp, #0x20
ffff29b4:	a9017bfd 	stp	x29, x30, [sp, #16]
ffff29b8:	910043fd 	add	x29, sp, #0x10
ffff29bc:	a90053f3 	stp	x19, x20, [sp]
ffff29c0:	aa0003f3 	mov	x19, x0
ffff29c4:	d0ff84e0 	adrp	x0, 0xff090000
ffff29c8:	7903e01f 	strh	wzr, [x0, #496]
ffff29cc:	d0ff84e0 	adrp	x0, 0xff090000
ffff29d0:	7903e41f 	strh	wzr, [x0, #498]
ffff29d4:	52902001 	mov	w1, #0x8100                	// #33024
ffff29d8:	aa1303e0 	mov	x0, x19
ffff29dc:	aa1f03e2 	mov	x2, xzr
ffff29e0:	aa1f03e3 	mov	x3, xzr
ffff29e4:	97ffff92 	bl	0xffff282c
ffff29e8:	aa0003f4 	mov	x20, x0
ffff29ec:	350003d4 	cbnz	w20, 0xffff2a64
ffff29f0:	52800c80 	mov	w0, #0x64                  	// #100
ffff29f4:	97fff72f 	bl	0xffff06b0
ffff29f8:	52842901 	mov	w1, #0x2148                	// #8520
ffff29fc:	52803542 	mov	w2, #0x1aa                 	// #426
ffff2a00:	aa1303e0 	mov	x0, x19
ffff2a04:	aa1f03e3 	mov	x3, xzr
ffff2a08:	97ffff89 	bl	0xffff282c
ffff2a0c:	52800034 	mov	w20, #0x1                   	// #1
ffff2a10:	7100801f 	cmp	w0, #0x20
ffff2a14:	54000161 	b.ne	0xffff2a40  // b.any
ffff2a18:	52842ee1 	mov	w1, #0x2177                	// #8567
ffff2a1c:	aa1303e0 	mov	x0, x19
ffff2a20:	aa1f03e2 	mov	x2, xzr
ffff2a24:	aa1f03e3 	mov	x3, xzr
ffff2a28:	97ffff81 	bl	0xffff282c
ffff2a2c:	7100801f 	cmp	w0, #0x20
ffff2a30:	54000101 	b.ne	0xffff2a50  // b.any
ffff2a34:	aa1303e0 	mov	x0, x19
ffff2a38:	97fffd87 	bl	0xffff2054
ffff2a3c:	14000009 	b	0xffff2a60
ffff2a40:	35000120 	cbnz	w0, 0xffff2a64
ffff2a44:	52800021 	mov	w1, #0x1                   	// #1
ffff2a48:	aa1303e0 	mov	x0, x19
ffff2a4c:	14000004 	b	0xffff2a5c
ffff2a50:	350000a0 	cbnz	w0, 0xffff2a64
ffff2a54:	aa1303e0 	mov	x0, x19
ffff2a58:	aa1f03e1 	mov	x1, xzr
ffff2a5c:	97fffdf9 	bl	0xffff2240
ffff2a60:	aa0003f4 	mov	x20, x0
ffff2a64:	aa1403e0 	mov	x0, x20
ffff2a68:	a94053f3 	ldp	x19, x20, [sp]
ffff2a6c:	a9417bfd 	ldp	x29, x30, [sp, #16]
ffff2a70:	910083ff 	add	sp, sp, #0x20
ffff2a74:	d65f03c0 	ret
ffff2a78:	d100c3ff 	sub	sp, sp, #0x30
ffff2a7c:	a9027bfd 	stp	x29, x30, [sp, #32]
ffff2a80:	910083fd 	add	x29, sp, #0x20
ffff2a84:	a90157f4 	stp	x20, x21, [sp, #16]
ffff2a88:	f90007f3 	str	x19, [sp, #8]
ffff2a8c:	aa0203f4 	mov	x20, x2
ffff2a90:	aa0103e6 	mov	x6, x1
ffff2a94:	d0ff84e1 	adrp	x1, 0xff090000
ffff2a98:	7943e421 	ldrh	w1, [x1, #498]
ffff2a9c:	52800482 	mov	w2, #0x24                  	// #36
ffff2aa0:	6a02003f 	tst	w1, w2
ffff2aa4:	52800121 	mov	w1, #0x9                   	// #9
ffff2aa8:	1a8113e1 	csel	w1, wzr, w1, ne  // ne = any
ffff2aac:	1ac12002 	lsl	w2, w0, w1
ffff2ab0:	7108029f 	cmp	w20, #0x200
ffff2ab4:	d0ff84f5 	adrp	x21, 0xff090000
ffff2ab8:	b941faa0 	ldr	w0, [x21, #504]
ffff2abc:	52846a21 	mov	w1, #0x2351                	// #9041
ffff2ac0:	52846a43 	mov	w3, #0x2352                	// #9042
ffff2ac4:	1a818061 	csel	w1, w3, w1, hi  // hi = pmore
ffff2ac8:	52804004 	mov	w4, #0x200                 	// #512
ffff2acc:	aa1f03e3 	mov	x3, xzr
ffff2ad0:	aa1403e5 	mov	x5, x20
ffff2ad4:	97fffeba 	bl	0xffff25bc
ffff2ad8:	aa0003f3 	mov	x19, x0
ffff2adc:	7108069f 	cmp	w20, #0x201
ffff2ae0:	54000123 	b.cc	0xffff2b04  // b.lo, b.ul, b.last
ffff2ae4:	12087a60 	and	w0, w19, #0xff7fffff
ffff2ae8:	350000e0 	cbnz	w0, 0xffff2b04
ffff2aec:	b941faa0 	ldr	w0, [x21, #504]
ffff2af0:	d0000001 	adrp	x1, 0xffff4000
ffff2af4:	b94b0c21 	ldr	w1, [x1, #2828]
ffff2af8:	aa1f03e2 	mov	x2, xzr
ffff2afc:	aa1f03e3 	mov	x3, xzr
ffff2b00:	97ffff4b 	bl	0xffff282c
ffff2b04:	7100027f 	cmp	w19, #0x0
ffff2b08:	1a9f07e0 	cset	w0, ne  // ne = any
ffff2b0c:	92400000 	and	x0, x0, #0x1
ffff2b10:	f94007f3 	ldr	x19, [sp, #8]
ffff2b14:	a94157f4 	ldp	x20, x21, [sp, #16]
ffff2b18:	a9427bfd 	ldp	x29, x30, [sp, #32]
ffff2b1c:	9100c3ff 	add	sp, sp, #0x30
ffff2b20:	d65f03c0 	ret
ffff2b24:	d10083ff 	sub	sp, sp, #0x20
ffff2b28:	a9017bfd 	stp	x29, x30, [sp, #16]
ffff2b2c:	910043fd 	add	x29, sp, #0x10
ffff2b30:	a90053f3 	stp	x19, x20, [sp]
ffff2b34:	aa0203f3 	mov	x19, x2
ffff2b38:	aa0103e6 	mov	x6, x1
ffff2b3c:	52800801 	mov	w1, #0x40                  	// #64
ffff2b40:	2a002834 	orr	w20, w1, w0, lsl #10
ffff2b44:	d0ff84e0 	adrp	x0, 0xff090000
ffff2b48:	7943e400 	ldrh	w0, [x0, #498]
ffff2b4c:	52800481 	mov	w1, #0x24                  	// #36
ffff2b50:	6a01001f 	tst	w0, w1
ffff2b54:	d0ff84e0 	adrp	x0, 0xff090000
ffff2b58:	b941f800 	ldr	w0, [x0, #504]
ffff2b5c:	52800121 	mov	w1, #0x9                   	// #9
ffff2b60:	1a8113e1 	csel	w1, wzr, w1, ne  // ne = any
ffff2b64:	1ac12282 	lsl	w2, w20, w1
ffff2b68:	52846a21 	mov	w1, #0x2351                	// #9041
ffff2b6c:	52804004 	mov	w4, #0x200                 	// #512
ffff2b70:	52804005 	mov	w5, #0x200                 	// #512
ffff2b74:	aa1f03e3 	mov	x3, xzr
ffff2b78:	97fffe91 	bl	0xffff25bc
ffff2b7c:	aa0003e1 	mov	x1, x0
ffff2b80:	12800000 	mov	w0, #0xffffffff            	// #-1
ffff2b84:	35000061 	cbnz	w1, 0xffff2b90
ffff2b88:	2a1f03e0 	mov	w0, wzr
ffff2b8c:	b9000274 	str	w20, [x19]
ffff2b90:	a94053f3 	ldp	x19, x20, [sp]
ffff2b94:	a9417bfd 	ldp	x29, x30, [sp, #16]
ffff2b98:	910083ff 	add	sp, sp, #0x20
ffff2b9c:	d65f03c0 	ret
ffff2ba0:	d10203ff 	sub	sp, sp, #0x80
ffff2ba4:	a9077bfd 	stp	x29, x30, [sp, #112]
ffff2ba8:	9101c3fd 	add	x29, sp, #0x70
ffff2bac:	a90673fb 	stp	x27, x28, [sp, #96]
ffff2bb0:	a9056bf9 	stp	x25, x26, [sp, #80]
ffff2bb4:	a90463f7 	stp	x23, x24, [sp, #64]
ffff2bb8:	a9035bf5 	stp	x21, x22, [sp, #48]
ffff2bbc:	a90253f3 	stp	x19, x20, [sp, #32]
ffff2bc0:	aa0003f3 	mov	x19, x0
ffff2bc4:	b9401e60 	ldr	w0, [x19, #28]
ffff2bc8:	d0ff84e1 	adrp	x1, 0xff090000
ffff2bcc:	b9001020 	str	w0, [x1, #16]
ffff2bd0:	b9401a60 	ldr	w0, [x19, #24]
ffff2bd4:	340013a0 	cbz	w0, 0xffff2e48
ffff2bd8:	2a1f03f4 	mov	w20, wzr
ffff2bdc:	f0ff84fa 	adrp	x26, 0xff091000
ffff2be0:	d0ff84f7 	adrp	x23, 0xff090000
ffff2be4:	f9400a63 	ldr	x3, [x19, #16]
ffff2be8:	91000355 	add	x21, x26, #0x0
ffff2bec:	910073e2 	add	x2, sp, #0x1c
ffff2bf0:	aa1403e0 	mov	x0, x20
ffff2bf4:	aa1503e1 	mov	x1, x21
ffff2bf8:	d63f0060 	blr	x3
ffff2bfc:	7100001f 	cmp	w0, #0x0
ffff2c00:	5400124b 	b.lt	0xffff2e48  // b.tstop
ffff2c04:	350011a0 	cbnz	w0, 0xffff2e38
ffff2c08:	b9400340 	ldr	w0, [x26]
ffff2c0c:	d0000001 	adrp	x1, 0xffff4000
ffff2c10:	b94b1021 	ldr	w1, [x1, #2832]
ffff2c14:	6b21401f 	cmp	w0, w1, uxtw
ffff2c18:	54001101 	b.ne	0xffff2e38  // b.any
ffff2c1c:	52804001 	mov	w1, #0x200                 	// #512
ffff2c20:	aa1503e0 	mov	x0, x21
ffff2c24:	940004cf 	bl	0xffff3f60
ffff2c28:	b9401fe0 	ldr	w0, [sp, #28]
ffff2c2c:	79c3faa2 	ldrsh	w2, [x21, #508]
ffff2c30:	79401aa1 	ldrh	w1, [x21, #12]
ffff2c34:	12003c43 	and	w3, w2, #0xffff
ffff2c38:	7943f6a4 	ldrh	w4, [x21, #506]
ffff2c3c:	7100147f 	cmp	w3, #0x5
ffff2c40:	1a9f27e5 	cset	w5, cc  // cc = lo, ul, last
ffff2c44:	7100005f 	cmp	w2, #0x0
ffff2c48:	1a9fa7e2 	cset	w2, lt  // lt = tstop
ffff2c4c:	2a0200a2 	orr	w2, w5, w2
ffff2c50:	52800025 	mov	w5, #0x1                   	// #1
ffff2c54:	6a05005f 	tst	w2, w5
ffff2c58:	52800142 	mov	w2, #0xa                   	// #10
ffff2c5c:	1a83105b 	csel	w27, w2, w3, ne  // ne = any
ffff2c60:	51001082 	sub	w2, w4, #0x4
ffff2c64:	12003c42 	and	w2, w2, #0xffff
ffff2c68:	710ff45f 	cmp	w2, #0x3fd
ffff2c6c:	1a9f27e2 	cset	w2, cc  // cc = lo, ul, last
ffff2c70:	6b3b409f 	cmp	w4, w27, uxtw
ffff2c74:	1a9f87e3 	cset	w3, ls  // ls = plast
ffff2c78:	0a020062 	and	w2, w3, w2
ffff2c7c:	52800063 	mov	w3, #0x3                   	// #3
ffff2c80:	6a03009f 	tst	w4, w3
ffff2c84:	1a9f17e3 	cset	w3, eq  // eq = none
ffff2c88:	0a030042 	and	w2, w2, w3
ffff2c8c:	6a05005f 	tst	w2, w5
ffff2c90:	52800082 	mov	w2, #0x4                   	// #4
ffff2c94:	1a821082 	csel	w2, w4, w2, ne  // ne = any
ffff2c98:	d0ff84e3 	adrp	x3, 0xff090000
ffff2c9c:	b9001460 	str	w0, [x3, #20]
ffff2ca0:	34000b7b 	cbz	w27, 0xffff2e0c
ffff2ca4:	2a1f03fc 	mov	w28, wzr
ffff2ca8:	b9400aa3 	ldr	w3, [x21, #8]
ffff2cac:	12000079 	and	w25, w3, #0x1
ffff2cb0:	1280ffe3 	mov	w3, #0xfffff800            	// #-2048
ffff2cb4:	0b022463 	add	w3, w3, w2, lsl #9
ffff2cb8:	f9000be3 	str	x3, [sp, #16]
ffff2cbc:	51001043 	sub	w3, w2, #0x4
ffff2cc0:	b9001be3 	str	w3, [sp, #24]
ffff2cc4:	4b224362 	sub	w2, w27, w2, uxtw
ffff2cc8:	53175842 	lsl	w2, w2, #9
ffff2ccc:	f90007e2 	str	x2, [sp, #8]
ffff2cd0:	0b214016 	add	w22, w0, w1, uxtw
ffff2cd4:	aa1503f8 	mov	x24, x21
ffff2cd8:	f9400663 	ldr	x3, [x19, #8]
ffff2cdc:	0b3c42c0 	add	w0, w22, w28, uxtw
ffff2ce0:	52810002 	mov	w2, #0x800                 	// #2048
ffff2ce4:	aa1803e1 	mov	x1, x24
ffff2ce8:	d63f0060 	blr	x3
ffff2cec:	35000a60 	cbnz	w0, 0xffff2e38
ffff2cf0:	350001b9 	cbnz	w25, 0xffff2d24
ffff2cf4:	52804001 	mov	w1, #0x200                 	// #512
ffff2cf8:	aa1803e0 	mov	x0, x24
ffff2cfc:	94000499 	bl	0xffff3f60
ffff2d00:	91080300 	add	x0, x24, #0x200
ffff2d04:	52804001 	mov	w1, #0x200                 	// #512
ffff2d08:	94000496 	bl	0xffff3f60
ffff2d0c:	91100300 	add	x0, x24, #0x400
ffff2d10:	52804001 	mov	w1, #0x200                 	// #512
ffff2d14:	94000493 	bl	0xffff3f60
ffff2d18:	91180300 	add	x0, x24, #0x600
ffff2d1c:	52804001 	mov	w1, #0x200                 	// #512
ffff2d20:	94000490 	bl	0xffff3f60
ffff2d24:	b9400ee0 	ldr	w0, [x23, #12]
ffff2d28:	3500015c 	cbnz	w28, 0xffff2d50
ffff2d2c:	35000560 	cbnz	w0, 0xffff2dd8
ffff2d30:	b9400300 	ldr	w0, [x24]
ffff2d34:	d0ffffe1 	adrp	x1, 0xffff0000
ffff2d38:	911cf021 	add	x1, x1, #0x73c
ffff2d3c:	b9400021 	ldr	w1, [x1]
ffff2d40:	6b21401f 	cmp	w0, w1, uxtw
ffff2d44:	540005e0 	b.eq	0xffff2e00  // b.none
ffff2d48:	2a1f03e0 	mov	w0, wzr
ffff2d4c:	14000003 	b	0xffff2d58
ffff2d50:	7100001f 	cmp	w0, #0x0
ffff2d54:	1a9f07e0 	cset	w0, ne  // ne = any
ffff2d58:	b9401be1 	ldr	w1, [sp, #24]
ffff2d5c:	6b3c403f 	cmp	w1, w28, uxtw
ffff2d60:	54000301 	b.ne	0xffff2dc0  // b.any
ffff2d64:	36000100 	tbz	w0, #0, 0xffff2d84
ffff2d68:	52810001 	mov	w1, #0x800                 	// #2048
ffff2d6c:	aa1803e0 	mov	x0, x24
ffff2d70:	97fff799 	bl	0xffff0bd4
ffff2d74:	d0ff84e0 	adrp	x0, 0xff090000
ffff2d78:	9100f000 	add	x0, x0, #0x3c
ffff2d7c:	97fff7bb 	bl	0xffff0c68
ffff2d80:	350005c0 	cbnz	w0, 0xffff2e38
ffff2d84:	b9400340 	ldr	w0, [x26]
ffff2d88:	d0000001 	adrp	x1, 0xffff4000
ffff2d8c:	91238021 	add	x1, x1, #0x8e0
ffff2d90:	b9400021 	ldr	w1, [x1]
ffff2d94:	6b21401f 	cmp	w0, w1, uxtw
ffff2d98:	54000501 	b.ne	0xffff2e38  // b.any
ffff2d9c:	910012a0 	add	x0, x21, #0x4
ffff2da0:	d63f0000 	blr	x0
ffff2da4:	350004a0 	cbnz	w0, 0xffff2e38
ffff2da8:	b9400ee0 	ldr	w0, [x23, #12]
ffff2dac:	34000060 	cbz	w0, 0xffff2db8
ffff2db0:	f94007e0 	ldr	x0, [sp, #8]
ffff2db4:	97fff774 	bl	0xffff0b84
ffff2db8:	aa1f03f8 	mov	x24, xzr
ffff2dbc:	14000011 	b	0xffff2e00
ffff2dc0:	36000080 	tbz	w0, #0, 0xffff2dd0
ffff2dc4:	52810001 	mov	w1, #0x800                 	// #2048
ffff2dc8:	aa1803e0 	mov	x0, x24
ffff2dcc:	97fff782 	bl	0xffff0bd4
ffff2dd0:	91200318 	add	x24, x24, #0x800
ffff2dd4:	1400000b 	b	0xffff2e00
ffff2dd8:	aa1803e0 	mov	x0, x24
ffff2ddc:	97fff538 	bl	0xffff02bc
ffff2de0:	350002c0 	cbnz	w0, 0xffff2e38
ffff2de4:	910c8301 	add	x1, x24, #0x320
ffff2de8:	d0ff84e0 	adrp	x0, 0xff090000
ffff2dec:	9100f000 	add	x0, x0, #0x3c
ffff2df0:	d2800882 	mov	x2, #0x44                  	// #68
ffff2df4:	9400056a 	bl	0xffff439c
ffff2df8:	f9400be0 	ldr	x0, [sp, #16]
ffff2dfc:	97fff762 	bl	0xffff0b84
ffff2e00:	1100139c 	add	w28, w28, #0x4
ffff2e04:	6b3b439f 	cmp	w28, w27, uxtw
ffff2e08:	54fff683 	b.cc	0xffff2cd8  // b.lo, b.ul, b.last
ffff2e0c:	d0ff84e0 	adrp	x0, 0xff090000
ffff2e10:	b9400c00 	ldr	w0, [x0, #12]
ffff2e14:	340000e0 	cbz	w0, 0xffff2e30
ffff2e18:	d0ff84e0 	adrp	x0, 0xff090000
ffff2e1c:	9100f000 	add	x0, x0, #0x3c
ffff2e20:	91009000 	add	x0, x0, #0x24
ffff2e24:	97fff791 	bl	0xffff0c68
ffff2e28:	35000080 	cbnz	w0, 0xffff2e38
ffff2e2c:	97fff4ed 	bl	0xffff01e0
ffff2e30:	aa1f03e0 	mov	x0, xzr
ffff2e34:	940005f1 	bl	0xffff45f8
ffff2e38:	b9401a60 	ldr	w0, [x19, #24]
ffff2e3c:	11000694 	add	w20, w20, #0x1
ffff2e40:	6b20429f 	cmp	w20, w0, uxtw
ffff2e44:	54ffed03 	b.cc	0xffff2be4  // b.lo, b.ul, b.last
ffff2e48:	a94253f3 	ldp	x19, x20, [sp, #32]
ffff2e4c:	a9435bf5 	ldp	x21, x22, [sp, #48]
ffff2e50:	a94463f7 	ldp	x23, x24, [sp, #64]
ffff2e54:	a9456bf9 	ldp	x25, x26, [sp, #80]
ffff2e58:	a94673fb 	ldp	x27, x28, [sp, #96]
ffff2e5c:	a9477bfd 	ldp	x29, x30, [sp, #112]
ffff2e60:	910203ff 	add	sp, sp, #0x80
ffff2e64:	d65f03c0 	ret
ffff2e68:	d10083ff 	sub	sp, sp, #0x20
ffff2e6c:	a9017bfd 	stp	x29, x30, [sp, #16]
ffff2e70:	910043fd 	add	x29, sp, #0x10
ffff2e74:	a90053f3 	stp	x19, x20, [sp]
ffff2e78:	d0000000 	adrp	x0, 0xffff4000
ffff2e7c:	91180013 	add	x19, x0, #0x600
ffff2e80:	52800094 	mov	w20, #0x4                   	// #4
ffff2e84:	f9400260 	ldr	x0, [x19]
ffff2e88:	d63f0000 	blr	x0
ffff2e8c:	35000060 	cbnz	w0, 0xffff2e98
ffff2e90:	aa1303e0 	mov	x0, x19
ffff2e94:	97ffff43 	bl	0xffff2ba0
ffff2e98:	91008273 	add	x19, x19, #0x20
ffff2e9c:	51000694 	sub	w20, w20, #0x1
ffff2ea0:	35ffff34 	cbnz	w20, 0xffff2e84
ffff2ea4:	a94053f3 	ldp	x19, x20, [sp]
ffff2ea8:	a9417bfd 	ldp	x29, x30, [sp, #16]
ffff2eac:	910083ff 	add	sp, sp, #0x20
ffff2eb0:	d65f03c0 	ret
ffff2eb4:	d0000000 	adrp	x0, 0xffff4000
ffff2eb8:	b94b1400 	ldr	w0, [x0, #2836]
ffff2ebc:	b9400001 	ldr	w1, [x0]
ffff2ec0:	d0ff84e2 	adrp	x2, 0xff090000
ffff2ec4:	91021042 	add	x2, x2, #0x84
ffff2ec8:	39400c43 	ldrb	w3, [x2, #3]
ffff2ecc:	39400842 	ldrb	w2, [x2, #2]
ffff2ed0:	12156021 	and	w1, w1, #0xfffff80f
ffff2ed4:	2a032042 	orr	w2, w2, w3, lsl #8
ffff2ed8:	2a021021 	orr	w1, w1, w2, lsl #4
ffff2edc:	b9000001 	str	w1, [x0]
ffff2ee0:	aa1f03e0 	mov	x0, xzr
ffff2ee4:	aa1f03e1 	mov	x1, xzr
ffff2ee8:	14000103 	b	0xffff32f4
ffff2eec:	aa1f03e0 	mov	x0, xzr
ffff2ef0:	aa1f03e1 	mov	x1, xzr
ffff2ef4:	14000100 	b	0xffff32f4
ffff2ef8:	d10083ff 	sub	sp, sp, #0x20
ffff2efc:	a9017bfd 	stp	x29, x30, [sp, #16]
ffff2f00:	910043fd 	add	x29, sp, #0x10
ffff2f04:	a90053f3 	stp	x19, x20, [sp]
ffff2f08:	d0ff84e0 	adrp	x0, 0xff090000
ffff2f0c:	91021000 	add	x0, x0, #0x84
ffff2f10:	39400c01 	ldrb	w1, [x0, #3]
ffff2f14:	7100083f 	cmp	w1, #0x2
ffff2f18:	54000321 	b.ne	0xffff2f7c  // b.any
ffff2f1c:	39401c01 	ldrb	w1, [x0, #7]
ffff2f20:	39401800 	ldrb	w0, [x0, #6]
ffff2f24:	2a012001 	orr	w1, w0, w1, lsl #8
ffff2f28:	7100283f 	cmp	w1, #0xa
ffff2f2c:	d0ff84f4 	adrp	x20, 0xff090000
ffff2f30:	f9405280 	ldr	x0, [x20, #160]
ffff2f34:	52800402 	mov	w2, #0x20                  	// #32
ffff2f38:	1a823033 	csel	w19, w1, w2, cc  // cc = lo, ul, last
ffff2f3c:	53007e62 	lsr	w2, w19, #0
ffff2f40:	d0000001 	adrp	x1, 0xffff4000
ffff2f44:	911af021 	add	x1, x1, #0x6bc
ffff2f48:	94000515 	bl	0xffff439c
ffff2f4c:	d0ff84e0 	adrp	x0, 0xff090000
ffff2f50:	79410000 	ldrh	w0, [x0, #128]
ffff2f54:	7101001f 	cmp	w0, #0x40
ffff2f58:	540000e1 	b.ne	0xffff2f74  // b.any
ffff2f5c:	f9405280 	ldr	x0, [x20, #160]
ffff2f60:	39005c1f 	strb	wzr, [x0, #23]
ffff2f64:	52800801 	mov	w1, #0x40                  	// #64
ffff2f68:	39005801 	strb	w1, [x0, #22]
ffff2f6c:	3900781f 	strb	wzr, [x0, #30]
ffff2f70:	39007401 	strb	w1, [x0, #29]
ffff2f74:	f9405281 	ldr	x1, [x20, #160]
ffff2f78:	14000018 	b	0xffff2fd8
ffff2f7c:	7100043f 	cmp	w1, #0x1
ffff2f80:	54000321 	b.ne	0xffff2fe4  // b.any
ffff2f84:	39401c01 	ldrb	w1, [x0, #7]
ffff2f88:	39401800 	ldrb	w0, [x0, #6]
ffff2f8c:	2a012001 	orr	w1, w0, w1, lsl #8
ffff2f90:	7100483f 	cmp	w1, #0x12
ffff2f94:	d0ff84f4 	adrp	x20, 0xff090000
ffff2f98:	f9405280 	ldr	x0, [x20, #160]
ffff2f9c:	52800242 	mov	w2, #0x12                  	// #18
ffff2fa0:	1a818053 	csel	w19, w2, w1, hi  // hi = pmore
ffff2fa4:	53007e62 	lsr	w2, w19, #0
ffff2fa8:	d0000001 	adrp	x1, 0xffff4000
ffff2fac:	911aa021 	add	x1, x1, #0x6a8
ffff2fb0:	940004fb 	bl	0xffff439c
ffff2fb4:	d0ff84e0 	adrp	x0, 0xff090000
ffff2fb8:	79410000 	ldrh	w0, [x0, #128]
ffff2fbc:	f9405281 	ldr	x1, [x20, #160]
ffff2fc0:	7101001f 	cmp	w0, #0x40
ffff2fc4:	540000a1 	b.ne	0xffff2fd8  // b.any
ffff2fc8:	52800020 	mov	w0, #0x1                   	// #1
ffff2fcc:	39000c20 	strb	w0, [x1, #3]
ffff2fd0:	52800200 	mov	w0, #0x10                  	// #16
ffff2fd4:	39000820 	strb	w0, [x1, #2]
ffff2fd8:	aa1303e0 	mov	x0, x19
ffff2fdc:	940000c6 	bl	0xffff32f4
ffff2fe0:	1400000b 	b	0xffff300c
ffff2fe4:	d0000000 	adrp	x0, 0xffff4000
ffff2fe8:	b94b1800 	ldr	w0, [x0, #2840]
ffff2fec:	b9400001 	ldr	w1, [x0]
ffff2ff0:	d0000002 	adrp	x2, 0xffff4000
ffff2ff4:	b94b1c42 	ldr	w2, [x2, #2844]
ffff2ff8:	320b0021 	orr	w1, w1, #0x200000
ffff2ffc:	b9000001 	str	w1, [x0]
ffff3000:	b9400040 	ldr	w0, [x2]
ffff3004:	320b0000 	orr	w0, w0, #0x200000
ffff3008:	b9000040 	str	w0, [x2]
ffff300c:	a94053f3 	ldp	x19, x20, [sp]
ffff3010:	a9417bfd 	ldp	x29, x30, [sp, #16]
ffff3014:	910083ff 	add	sp, sp, #0x20
ffff3018:	d65f03c0 	ret
ffff301c:	b0000000 	adrp	x0, 0xffff4000
ffff3020:	b94b2000 	ldr	w0, [x0, #2848]
ffff3024:	b9400001 	ldr	w1, [x0]
ffff3028:	b0000002 	adrp	x2, 0xffff4000
ffff302c:	b94b2442 	ldr	w2, [x2, #2852]
ffff3030:	320b0021 	orr	w1, w1, #0x200000
ffff3034:	b9000001 	str	w1, [x0]
ffff3038:	b9400040 	ldr	w0, [x2]
ffff303c:	320b0000 	orr	w0, w0, #0x200000
ffff3040:	b9000040 	str	w0, [x2]
ffff3044:	d65f03c0 	ret
ffff3048:	aa1f03e0 	mov	x0, xzr
ffff304c:	aa1f03e1 	mov	x1, xzr
ffff3050:	140000a9 	b	0xffff32f4
ffff3054:	d10083ff 	sub	sp, sp, #0x20
ffff3058:	a9017bfd 	stp	x29, x30, [sp, #16]
ffff305c:	910043fd 	add	x29, sp, #0x10
ffff3060:	f90007f3 	str	x19, [sp, #8]
ffff3064:	b0000000 	adrp	x0, 0xffff4000
ffff3068:	b94b2813 	ldr	w19, [x0, #2856]
ffff306c:	320683e0 	mov	w0, #0x4000400             	// #67109888
ffff3070:	b9000260 	str	w0, [x19]
ffff3074:	52800020 	mov	w0, #0x1                   	// #1
ffff3078:	97fff58e 	bl	0xffff06b0
ffff307c:	320783e0 	mov	w0, #0x2000200             	// #33554944
ffff3080:	b9000260 	str	w0, [x19]
ffff3084:	52800140 	mov	w0, #0xa                   	// #10
ffff3088:	97fff59f 	bl	0xffff0704
ffff308c:	52a04000 	mov	w0, #0x2000000             	// #33554432
ffff3090:	b9000260 	str	w0, [x19]
ffff3094:	52800060 	mov	w0, #0x3                   	// #3
ffff3098:	97fff59b 	bl	0xffff0704
ffff309c:	52a08000 	mov	w0, #0x4000000             	// #67108864
ffff30a0:	b9000260 	str	w0, [x19]
ffff30a4:	f94007f3 	ldr	x19, [sp, #8]
ffff30a8:	a9417bfd 	ldp	x29, x30, [sp, #16]
ffff30ac:	910083ff 	add	sp, sp, #0x20
ffff30b0:	d65f03c0 	ret
ffff30b4:	52800021 	mov	w1, #0x1                   	// #1
ffff30b8:	b0000000 	adrp	x0, 0xffff4000
ffff30bc:	b94b2c00 	ldr	w0, [x0, #2860]
ffff30c0:	b9400002 	ldr	w2, [x0]
ffff30c4:	7100005f 	cmp	w2, #0x0
ffff30c8:	540000ab 	b.lt	0xffff30dc  // b.tstop
ffff30cc:	53047c22 	lsr	w2, w1, #4
ffff30d0:	11000421 	add	w1, w1, #0x1
ffff30d4:	7109c45f 	cmp	w2, #0x271
ffff30d8:	54ffff03 	b.cc	0xffff30b8  // b.lo, b.ul, b.last
ffff30dc:	b9400001 	ldr	w1, [x0]
ffff30e0:	32000021 	orr	w1, w1, #0x1
ffff30e4:	b9000001 	str	w1, [x0]
ffff30e8:	52800021 	mov	w1, #0x1                   	// #1
ffff30ec:	b9400002 	ldr	w2, [x0]
ffff30f0:	360000a2 	tbz	w2, #0, 0xffff3104
ffff30f4:	53047c22 	lsr	w2, w1, #4
ffff30f8:	11000421 	add	w1, w1, #0x1
ffff30fc:	7109c45f 	cmp	w2, #0x271
ffff3100:	54ffff63 	b.cc	0xffff30ec  // b.lo, b.ul, b.last
ffff3104:	b0000001 	adrp	x1, 0xffff4000
ffff3108:	b94b3021 	ldr	w1, [x1, #2864]
ffff310c:	b0000002 	adrp	x2, 0xffff4000
ffff3110:	b94b3442 	ldr	w2, [x2, #2868]
ffff3114:	b900003f 	str	wzr, [x1]
ffff3118:	b9400041 	ldr	w1, [x2]
ffff311c:	121e7421 	and	w1, w1, #0xfffffffc
ffff3120:	b9000041 	str	w1, [x2]
ffff3124:	b9400041 	ldr	w1, [x2]
ffff3128:	b0000003 	adrp	x3, 0xffff4000
ffff312c:	b94b3863 	ldr	w3, [x3, #2872]
ffff3130:	12156021 	and	w1, w1, #0xfffff80f
ffff3134:	b9000041 	str	w1, [x2]
ffff3138:	b9400061 	ldr	w1, [x3]
ffff313c:	12103c21 	and	w1, w1, #0xffff0000
ffff3140:	32170021 	orr	w1, w1, #0x200
ffff3144:	b9000061 	str	w1, [x3]
ffff3148:	b9400001 	ldr	w1, [x0]
ffff314c:	52808402 	mov	w2, #0x420                 	// #1056
ffff3150:	2a020021 	orr	w1, w1, w2
ffff3154:	b9000001 	str	w1, [x0]
ffff3158:	52800021 	mov	w1, #0x1                   	// #1
ffff315c:	b9400002 	ldr	w2, [x0]
ffff3160:	362800a2 	tbz	w2, #5, 0xffff3174
ffff3164:	53047c22 	lsr	w2, w1, #4
ffff3168:	11000421 	add	w1, w1, #0x1
ffff316c:	7109c45f 	cmp	w2, #0x271
ffff3170:	54ffff63 	b.cc	0xffff315c  // b.lo, b.ul, b.last
ffff3174:	b9400001 	ldr	w1, [x0]
ffff3178:	321c0021 	orr	w1, w1, #0x10
ffff317c:	b9000001 	str	w1, [x0]
ffff3180:	52800021 	mov	w1, #0x1                   	// #1
ffff3184:	b9400002 	ldr	w2, [x0]
ffff3188:	362000a2 	tbz	w2, #4, 0xffff319c
ffff318c:	53047c22 	lsr	w2, w1, #4
ffff3190:	11000421 	add	w1, w1, #0x1
ffff3194:	7109c45f 	cmp	w2, #0x271
ffff3198:	54ffff63 	b.cc	0xffff3184  // b.lo, b.ul, b.last
ffff319c:	b9400001 	ldr	w1, [x0]
ffff31a0:	321d0021 	orr	w1, w1, #0x8
ffff31a4:	b9000001 	str	w1, [x0]
ffff31a8:	b0000000 	adrp	x0, 0xffff4000
ffff31ac:	b94b3c00 	ldr	w0, [x0, #2876]
ffff31b0:	52a90001 	mov	w1, #0x48000000            	// #1207959552
ffff31b4:	b9000001 	str	w1, [x0]
ffff31b8:	b0000000 	adrp	x0, 0xffff4000
ffff31bc:	b94b4000 	ldr	w0, [x0, #2880]
ffff31c0:	b900001f 	str	wzr, [x0]
ffff31c4:	b0000000 	adrp	x0, 0xffff4000
ffff31c8:	b94b4400 	ldr	w0, [x0, #2884]
ffff31cc:	b900001f 	str	wzr, [x0]
ffff31d0:	b0000000 	adrp	x0, 0xffff4000
ffff31d4:	b94b4800 	ldr	w0, [x0, #2888]
ffff31d8:	52801fe2 	mov	w2, #0xff                  	// #255
ffff31dc:	b9000002 	str	w2, [x0]
ffff31e0:	b0000000 	adrp	x0, 0xffff4000
ffff31e4:	b94b4c00 	ldr	w0, [x0, #2892]
ffff31e8:	b9000001 	str	w1, [x0]
ffff31ec:	b0000000 	adrp	x0, 0xffff4000
ffff31f0:	b94b5000 	ldr	w0, [x0, #2896]
ffff31f4:	b900001f 	str	wzr, [x0]
ffff31f8:	b0000000 	adrp	x0, 0xffff4000
ffff31fc:	b94b5400 	ldr	w0, [x0, #2900]
ffff3200:	b900001f 	str	wzr, [x0]
ffff3204:	b0000000 	adrp	x0, 0xffff4000
ffff3208:	b94b5800 	ldr	w0, [x0, #2904]
ffff320c:	b9000002 	str	w2, [x0]
ffff3210:	b0000000 	adrp	x0, 0xffff4000
ffff3214:	b94b5c00 	ldr	w0, [x0, #2908]
ffff3218:	528005e1 	mov	w1, #0x2f                  	// #47
ffff321c:	b9000001 	str	w1, [x0]
ffff3220:	b0000000 	adrp	x0, 0xffff4000
ffff3224:	b94b6000 	ldr	w0, [x0, #2912]
ffff3228:	b9400000 	ldr	w0, [x0]
ffff322c:	b0000002 	adrp	x2, 0xffff4000
ffff3230:	b94b6442 	ldr	w2, [x2, #2916]
ffff3234:	6b22401f 	cmp	w0, w2, uxtw
ffff3238:	528001e0 	mov	w0, #0xf                   	// #15
ffff323c:	1a808020 	csel	w0, w1, w0, hi  // hi = pmore
ffff3240:	b0000001 	adrp	x1, 0xffff4000
ffff3244:	b94b6821 	ldr	w1, [x1, #2920]
ffff3248:	b9000020 	str	w0, [x1]
ffff324c:	b0000000 	adrp	x0, 0xffff4000
ffff3250:	b94b6c00 	ldr	w0, [x0, #2924]
ffff3254:	12800001 	mov	w1, #0xffffffff            	// #-1
ffff3258:	b9000001 	str	w1, [x0]
ffff325c:	b0000000 	adrp	x0, 0xffff4000
ffff3260:	b94b7000 	ldr	w0, [x0, #2928]
ffff3264:	320083e2 	mov	w2, #0x10001               	// #65537
ffff3268:	b9000002 	str	w2, [x0]
ffff326c:	b0000000 	adrp	x0, 0xffff4000
ffff3270:	b94b7400 	ldr	w0, [x0, #2932]
ffff3274:	b0000002 	adrp	x2, 0xffff4000
ffff3278:	b94b7842 	ldr	w2, [x2, #2936]
ffff327c:	b0000003 	adrp	x3, 0xffff4000
ffff3280:	b94b7c63 	ldr	w3, [x3, #2940]
ffff3284:	b0000004 	adrp	x4, 0xffff4000
ffff3288:	b94b8084 	ldr	w4, [x4, #2944]
ffff328c:	b0000005 	adrp	x5, 0xffff4000
ffff3290:	b94b84a5 	ldr	w5, [x5, #2948]
ffff3294:	b9000001 	str	w1, [x0]
ffff3298:	b9000041 	str	w1, [x2]
ffff329c:	b9000083 	str	w3, [x4]
ffff32a0:	b94000a0 	ldr	w0, [x5]
ffff32a4:	32000000 	orr	w0, w0, #0x1
ffff32a8:	b90000a0 	str	w0, [x5]
ffff32ac:	d65f03c0 	ret
ffff32b0:	12003c00 	and	w0, w0, #0xffff
ffff32b4:	34000140 	cbz	w0, 0xffff32dc
ffff32b8:	2a1f03e2 	mov	w2, wzr
ffff32bc:	b0000003 	adrp	x3, 0xffff4000
ffff32c0:	b94b8863 	ldr	w3, [x3, #2952]
ffff32c4:	b9400063 	ldr	w3, [x3]
ffff32c8:	b9000023 	str	w3, [x1]
ffff32cc:	91001021 	add	x1, x1, #0x4
ffff32d0:	11001042 	add	w2, w2, #0x4
ffff32d4:	6b20405f 	cmp	w2, w0, uxtw
ffff32d8:	54ffff23 	b.cc	0xffff32bc  // b.lo, b.ul, b.last
ffff32dc:	b0000000 	adrp	x0, 0xffff4000
ffff32e0:	b94b8c00 	ldr	w0, [x0, #2956]
ffff32e4:	b0000001 	adrp	x1, 0xffff4000
ffff32e8:	b94b9021 	ldr	w1, [x1, #2960]
ffff32ec:	b9000020 	str	w0, [x1]
ffff32f0:	d65f03c0 	ret
ffff32f4:	b0000002 	adrp	x2, 0xffff4000
ffff32f8:	b94b9442 	ldr	w2, [x2, #2964]
ffff32fc:	b9400043 	ldr	w3, [x2]
ffff3300:	12003c63 	and	w3, w3, #0xffff
ffff3304:	52800064 	mov	w4, #0x3                   	// #3
ffff3308:	0b202084 	add	w4, w4, w0, uxth
ffff330c:	6b44087f 	cmp	w3, w4, lsr #2
ffff3310:	540002e3 	b.cc	0xffff336c  // b.lo, b.ul, b.last
ffff3314:	b9400042 	ldr	w2, [x2]
ffff3318:	12101c42 	and	w2, w2, #0xff0000
ffff331c:	34000282 	cbz	w2, 0xffff336c
ffff3320:	12003c00 	and	w0, w0, #0xffff
ffff3324:	b0000002 	adrp	x2, 0xffff4000
ffff3328:	b94b9842 	ldr	w2, [x2, #2968]
ffff332c:	b0000003 	adrp	x3, 0xffff4000
ffff3330:	b94b9c63 	ldr	w3, [x3, #2972]
ffff3334:	320d0004 	orr	w4, w0, #0x80000
ffff3338:	b9000044 	str	w4, [x2]
ffff333c:	52b08002 	mov	w2, #0x84000000            	// #-2080374784
ffff3340:	b9000062 	str	w2, [x3]
ffff3344:	34000140 	cbz	w0, 0xffff336c
ffff3348:	2a1f03e2 	mov	w2, wzr
ffff334c:	b9400023 	ldr	w3, [x1]
ffff3350:	b0000004 	adrp	x4, 0xffff4000
ffff3354:	b94ba084 	ldr	w4, [x4, #2976]
ffff3358:	91001021 	add	x1, x1, #0x4
ffff335c:	b9000083 	str	w3, [x4]
ffff3360:	11001042 	add	w2, w2, #0x4
ffff3364:	6b20405f 	cmp	w2, w0, uxtw
ffff3368:	54ffff23 	b.cc	0xffff334c  // b.lo, b.ul, b.last
ffff336c:	d65f03c0 	ret
ffff3370:	b0000000 	adrp	x0, 0xffff4000
ffff3374:	b94ba400 	ldr	w0, [x0, #2980]
ffff3378:	52a01001 	mov	w1, #0x800000              	// #8388608
ffff337c:	b9000001 	str	w1, [x0]
ffff3380:	d65f03c0 	ret
ffff3384:	b0000000 	adrp	x0, 0xffff4000
ffff3388:	b94ba800 	ldr	w0, [x0, #2984]
ffff338c:	52a01001 	mov	w1, #0x800000              	// #8388608
ffff3390:	b9000001 	str	w1, [x0]
ffff3394:	d65f03c0 	ret
ffff3398:	b0000000 	adrp	x0, 0xffff4000
ffff339c:	b94bac00 	ldr	w0, [x0, #2988]
ffff33a0:	b9400001 	ldr	w1, [x0]
ffff33a4:	32000021 	orr	w1, w1, #0x1
ffff33a8:	b9000001 	str	w1, [x0]
ffff33ac:	b9400001 	ldr	w1, [x0]
ffff33b0:	121c7821 	and	w1, w1, #0xfffffff7
ffff33b4:	b9000001 	str	w1, [x0]
ffff33b8:	b0000000 	adrp	x0, 0xffff4000
ffff33bc:	b94bb000 	ldr	w0, [x0, #2992]
ffff33c0:	52801fe1 	mov	w1, #0xff                  	// #255
ffff33c4:	b0000002 	adrp	x2, 0xffff4000
ffff33c8:	b94bb442 	ldr	w2, [x2, #2996]
ffff33cc:	b9000001 	str	w1, [x0]
ffff33d0:	b9400040 	ldr	w0, [x2]
ffff33d4:	12107800 	and	w0, w0, #0xffff7fff
ffff33d8:	b9000040 	str	w0, [x2]
ffff33dc:	b0000000 	adrp	x0, 0xffff4000
ffff33e0:	b94bb800 	ldr	w0, [x0, #3000]
ffff33e4:	12800001 	mov	w1, #0xffffffff            	// #-1
ffff33e8:	b9000001 	str	w1, [x0]
ffff33ec:	b0000000 	adrp	x0, 0xffff4000
ffff33f0:	b94bbc00 	ldr	w0, [x0, #3004]
ffff33f4:	b9000001 	str	w1, [x0]
ffff33f8:	b0000000 	adrp	x0, 0xffff4000
ffff33fc:	b94bc000 	ldr	w0, [x0, #3008]
ffff3400:	b9000001 	str	w1, [x0]
ffff3404:	b0000000 	adrp	x0, 0xffff4000
ffff3408:	b94bc400 	ldr	w0, [x0, #3012]
ffff340c:	b9000001 	str	w1, [x0]
ffff3410:	b0000000 	adrp	x0, 0xffff4000
ffff3414:	b94bc800 	ldr	w0, [x0, #3016]
ffff3418:	b0000001 	adrp	x1, 0xffff4000
ffff341c:	b94bcc21 	ldr	w1, [x1, #3020]
ffff3420:	52a02002 	mov	w2, #0x1000000             	// #16777216
ffff3424:	b9000002 	str	w2, [x0]
ffff3428:	52800020 	mov	w0, #0x1                   	// #1
ffff342c:	b9000020 	str	w0, [x1]
ffff3430:	1400046d 	b	0xffff45e4
ffff3434:	d10043ff 	sub	sp, sp, #0x10
ffff3438:	a9007bfd 	stp	x29, x30, [sp]
ffff343c:	910003fd 	mov	x29, sp
ffff3440:	b0000000 	adrp	x0, 0xffff4000
ffff3444:	b94bd000 	ldr	w0, [x0, #3024]
ffff3448:	b9400000 	ldr	w0, [x0]
ffff344c:	7100dc1f 	cmp	w0, #0x37
ffff3450:	540000c1 	b.ne	0xffff3468  // b.any
ffff3454:	94000008 	bl	0xffff3474
ffff3458:	b0000000 	adrp	x0, 0xffff4000
ffff345c:	b94bd400 	ldr	w0, [x0, #3028]
ffff3460:	528006e1 	mov	w1, #0x37                  	// #55
ffff3464:	b9000001 	str	w1, [x0]
ffff3468:	a9407bfd 	ldp	x29, x30, [sp]
ffff346c:	910043ff 	add	sp, sp, #0x10
ffff3470:	d65f03c0 	ret
ffff3474:	d100c3ff 	sub	sp, sp, #0x30
ffff3478:	a9027bfd 	stp	x29, x30, [sp, #32]
ffff347c:	910083fd 	add	x29, sp, #0x20
ffff3480:	a90157f4 	stp	x20, x21, [sp, #16]
ffff3484:	f90007f3 	str	x19, [sp, #8]
ffff3488:	b0000000 	adrp	x0, 0xffff4000
ffff348c:	b94bd813 	ldr	w19, [x0, #3032]
ffff3490:	b0000000 	adrp	x0, 0xffff4000
ffff3494:	b94bdc15 	ldr	w21, [x0, #3036]
ffff3498:	b9400260 	ldr	w0, [x19]
ffff349c:	b94002a1 	ldr	w1, [x21]
ffff34a0:	0a000034 	and	w20, w1, w0
ffff34a4:	34000534 	cbz	w20, 0xffff3548
ffff34a8:	36200114 	tbz	w20, #4, 0xffff34c8
ffff34ac:	b94002a0 	ldr	w0, [x21]
ffff34b0:	121b7800 	and	w0, w0, #0xffffffef
ffff34b4:	b90002a0 	str	w0, [x21]
ffff34b8:	94000029 	bl	0xffff355c
ffff34bc:	b94002a0 	ldr	w0, [x21]
ffff34c0:	321c0000 	orr	w0, w0, #0x10
ffff34c4:	b90002a0 	str	w0, [x21]
ffff34c8:	362800f4 	tbz	w20, #5, 0xffff34e4
ffff34cc:	b94002a0 	ldr	w0, [x21]
ffff34d0:	b0000001 	adrp	x1, 0xffff4000
ffff34d4:	b94be021 	ldr	w1, [x1, #3040]
ffff34d8:	121a7800 	and	w0, w0, #0xffffffdf
ffff34dc:	b90002a0 	str	w0, [x21]
ffff34e0:	b900003f 	str	wzr, [x1]
ffff34e4:	36600194 	tbz	w20, #12, 0xffff3514
ffff34e8:	b0ff84e0 	adrp	x0, 0xff090000
ffff34ec:	b0000001 	adrp	x1, 0xffff4000
ffff34f0:	b94be421 	ldr	w1, [x1, #3044]
ffff34f4:	3902701f 	strb	wzr, [x0, #156]
ffff34f8:	b0ff84e0 	adrp	x0, 0xff090000
ffff34fc:	3907d01f 	strb	wzr, [x0, #500]
ffff3500:	b9400020 	ldr	w0, [x1]
ffff3504:	121f7800 	and	w0, w0, #0xfffffffe
ffff3508:	b9000020 	str	w0, [x1]
ffff350c:	52820000 	mov	w0, #0x1000                	// #4096
ffff3510:	b9000260 	str	w0, [x19]
ffff3514:	36680094 	tbz	w20, #13, 0xffff3524
ffff3518:	94000050 	bl	0xffff3658
ffff351c:	52840000 	mov	w0, #0x2000                	// #8192
ffff3520:	b9000260 	str	w0, [x19]
ffff3524:	36900054 	tbz	w20, #18, 0xffff352c
ffff3528:	94000078 	bl	0xffff3708
ffff352c:	36980054 	tbz	w20, #19, 0xffff3534
ffff3530:	94000094 	bl	0xffff3780
ffff3534:	b0000000 	adrp	x0, 0xffff4000
ffff3538:	b94be800 	ldr	w0, [x0, #3048]
ffff353c:	8a000280 	and	x0, x20, x0
ffff3540:	b4000040 	cbz	x0, 0xffff3548
ffff3544:	b9000260 	str	w0, [x19]
ffff3548:	f94007f3 	ldr	x19, [sp, #8]
ffff354c:	a94157f4 	ldp	x20, x21, [sp, #16]
ffff3550:	a9427bfd 	ldp	x29, x30, [sp, #32]
ffff3554:	9100c3ff 	add	sp, sp, #0x30
ffff3558:	d65f03c0 	ret
ffff355c:	d10083ff 	sub	sp, sp, #0x20
ffff3560:	a9017bfd 	stp	x29, x30, [sp, #16]
ffff3564:	910043fd 	add	x29, sp, #0x10
ffff3568:	f90007f3 	str	x19, [sp, #8]
ffff356c:	b0000000 	adrp	x0, 0xffff4000
ffff3570:	b94bec13 	ldr	w19, [x0, #3052]
ffff3574:	b9400260 	ldr	w0, [x19]
ffff3578:	b90007e0 	str	w0, [sp, #4]
ffff357c:	b94007e0 	ldr	w0, [sp, #4]
ffff3580:	12000c00 	and	w0, w0, #0xf
ffff3584:	350004e0 	cbnz	w0, 0xffff3620
ffff3588:	b94007e0 	ldr	w0, [sp, #4]
ffff358c:	53115000 	ubfx	w0, w0, #17, #4
ffff3590:	51000801 	sub	w1, w0, #0x2
ffff3594:	53007c20 	lsr	w0, w1, #0
ffff3598:	7100103f 	cmp	w1, #0x4
ffff359c:	54000428 	b.hi	0xffff3620  // b.pmore
ffff35a0:	b0000001 	adrp	x1, 0xffff4000
ffff35a4:	911a0021 	add	x1, x1, #0x680
ffff35a8:	f8607820 	ldr	x0, [x1, x0, lsl #3]
ffff35ac:	d61f0000 	br	x0
ffff35b0:	b0000000 	adrp	x0, 0xffff4000
ffff35b4:	b94bf000 	ldr	w0, [x0, #3056]
ffff35b8:	b0000001 	adrp	x1, 0xffff4000
ffff35bc:	b94bf421 	ldr	w1, [x1, #3060]
ffff35c0:	b9000020 	str	w0, [x1]
ffff35c4:	14000017 	b	0xffff3620
ffff35c8:	b94007e0 	ldr	w0, [sp, #4]
ffff35cc:	53043800 	ubfx	w0, w0, #4, #11
ffff35d0:	940000a2 	bl	0xffff3858
ffff35d4:	14000013 	b	0xffff3620
ffff35d8:	b94007e0 	ldr	w0, [sp, #4]
ffff35dc:	121c2800 	and	w0, w0, #0x7ff0
ffff35e0:	7102001f 	cmp	w0, #0x80
ffff35e4:	540001e1 	b.ne	0xffff3620  // b.any
ffff35e8:	b0ff84e0 	adrp	x0, 0xff090000
ffff35ec:	91021001 	add	x1, x0, #0x84
ffff35f0:	52800100 	mov	w0, #0x8                   	// #8
ffff35f4:	97ffff2f 	bl	0xffff32b0
ffff35f8:	94000136 	bl	0xffff3ad0
ffff35fc:	b0000000 	adrp	x0, 0xffff4000
ffff3600:	b94bf800 	ldr	w0, [x0, #3064]
ffff3604:	b9400000 	ldr	w0, [x0]
ffff3608:	b0000001 	adrp	x1, 0xffff4000
ffff360c:	b94bfc21 	ldr	w1, [x1, #3068]
ffff3610:	6b21401f 	cmp	w0, w1, uxtw
ffff3614:	54000063 	b.cc	0xffff3620  // b.lo, b.ul, b.last
ffff3618:	b9400260 	ldr	w0, [x19]
ffff361c:	b90007e0 	str	w0, [sp, #4]
ffff3620:	f94007f3 	ldr	x19, [sp, #8]
ffff3624:	a9417bfd 	ldp	x29, x30, [sp, #16]
ffff3628:	910083ff 	add	sp, sp, #0x20
ffff362c:	d65f03c0 	ret
ffff3630:	b0ff84e0 	adrp	x0, 0xff090000
ffff3634:	b0000001 	adrp	x1, 0xffff4000
ffff3638:	b94c0021 	ldr	w1, [x1, #3072]
ffff363c:	3902701f 	strb	wzr, [x0, #156]
ffff3640:	b0ff84e0 	adrp	x0, 0xff090000
ffff3644:	3907d01f 	strb	wzr, [x0, #500]
ffff3648:	b9400020 	ldr	w0, [x1]
ffff364c:	121f7800 	and	w0, w0, #0xfffffffe
ffff3650:	b9000020 	str	w0, [x1]
ffff3654:	d65f03c0 	ret
ffff3658:	b0000000 	adrp	x0, 0xffff4000
ffff365c:	b94c0402 	ldr	w2, [x0, #3076]
ffff3660:	b0ff84e1 	adrp	x1, 0xff090000
ffff3664:	52800800 	mov	w0, #0x40                  	// #64
ffff3668:	79010020 	strh	w0, [x1, #128]
ffff366c:	b9400042 	ldr	w2, [x2]
ffff3670:	53010842 	ubfx	w2, w2, #1, #2
ffff3674:	71000c5f 	cmp	w2, #0x3
ffff3678:	540000c0 	b.eq	0xffff3690  // b.none
ffff367c:	7100045f 	cmp	w2, #0x1
ffff3680:	54000080 	b.eq	0xffff3690  // b.none
ffff3684:	35000122 	cbnz	w2, 0xffff36a8
ffff3688:	52804002 	mov	w2, #0x200                 	// #512
ffff368c:	79010022 	strh	w2, [x1, #128]
ffff3690:	b0000001 	adrp	x1, 0xffff4000
ffff3694:	b94c0821 	ldr	w1, [x1, #3080]
ffff3698:	b9400022 	ldr	w2, [x1]
ffff369c:	121e7442 	and	w2, w2, #0xfffffffc
ffff36a0:	b9000022 	str	w2, [x1]
ffff36a4:	14000007 	b	0xffff36c0
ffff36a8:	b0000000 	adrp	x0, 0xffff4000
ffff36ac:	b94c0800 	ldr	w0, [x0, #3080]
ffff36b0:	b9400001 	ldr	w1, [x0]
ffff36b4:	32000421 	orr	w1, w1, #0x3
ffff36b8:	b9000001 	str	w1, [x0]
ffff36bc:	52800100 	mov	w0, #0x8                   	// #8
ffff36c0:	b0000001 	adrp	x1, 0xffff4000
ffff36c4:	b94c0c21 	ldr	w1, [x1, #3084]
ffff36c8:	b0000002 	adrp	x2, 0xffff4000
ffff36cc:	b94c1042 	ldr	w2, [x2, #3088]
ffff36d0:	b0000003 	adrp	x3, 0xffff4000
ffff36d4:	b94c1463 	ldr	w3, [x3, #3092]
ffff36d8:	b0ff84e4 	adrp	x4, 0xff090000
ffff36dc:	7901d080 	strh	w0, [x4, #232]
ffff36e0:	b9000041 	str	w1, [x2]
ffff36e4:	b9400060 	ldr	w0, [x3]
ffff36e8:	b0000001 	adrp	x1, 0xffff4000
ffff36ec:	b94c1821 	ldr	w1, [x1, #3096]
ffff36f0:	32010000 	orr	w0, w0, #0x80000000
ffff36f4:	b9000060 	str	w0, [x3]
ffff36f8:	b9400020 	ldr	w0, [x1]
ffff36fc:	32180000 	orr	w0, w0, #0x100
ffff3700:	b9000020 	str	w0, [x1]
ffff3704:	d65f03c0 	ret
ffff3708:	b0000000 	adrp	x0, 0xffff4000
ffff370c:	b94c1c00 	ldr	w0, [x0, #3100]
ffff3710:	b0000001 	adrp	x1, 0xffff4000
ffff3714:	b94c2021 	ldr	w1, [x1, #3104]
ffff3718:	b9400000 	ldr	w0, [x0]
ffff371c:	b9400021 	ldr	w1, [x1]
ffff3720:	0a010000 	and	w0, w0, w1
ffff3724:	12003c00 	and	w0, w0, #0xffff
ffff3728:	340002a0 	cbz	w0, 0xffff377c
ffff372c:	b0000000 	adrp	x0, 0xffff4000
ffff3730:	b94c2400 	ldr	w0, [x0, #3108]
ffff3734:	b0000001 	adrp	x1, 0xffff4000
ffff3738:	b94c2821 	ldr	w1, [x1, #3112]
ffff373c:	b9400002 	ldr	w2, [x0]
ffff3740:	b0000000 	adrp	x0, 0xffff4000
ffff3744:	b94c2c00 	ldr	w0, [x0, #3116]
ffff3748:	b9400021 	ldr	w1, [x1]
ffff374c:	52801003 	mov	w3, #0x80                  	// #128
ffff3750:	b9400004 	ldr	w4, [x0]
ffff3754:	0a011c61 	and	w1, w3, w1, lsl #7
ffff3758:	2a020021 	orr	w1, w1, w2
ffff375c:	0a040021 	and	w1, w1, w4
ffff3760:	528005e2 	mov	w2, #0x2f                  	// #47
ffff3764:	0a020022 	and	w2, w1, w2
ffff3768:	34000042 	cbz	w2, 0xffff3770
ffff376c:	b9000002 	str	w2, [x0]
ffff3770:	36380061 	tbz	w1, #7, 0xffff377c
ffff3774:	52800201 	mov	w1, #0x10                  	// #16
ffff3778:	b9000001 	str	w1, [x0]
ffff377c:	d65f03c0 	ret
ffff3780:	b0000000 	adrp	x0, 0xffff4000
ffff3784:	b94c3000 	ldr	w0, [x0, #3120]
ffff3788:	b0000001 	adrp	x1, 0xffff4000
ffff378c:	b94c3421 	ldr	w1, [x1, #3124]
ffff3790:	b9400000 	ldr	w0, [x0]
ffff3794:	b9400021 	ldr	w1, [x1]
ffff3798:	0a000020 	and	w0, w1, w0
ffff379c:	53107c00 	lsr	w0, w0, #16
ffff37a0:	340005a0 	cbz	w0, 0xffff3854
ffff37a4:	2a1f03e1 	mov	w1, wzr
ffff37a8:	b0ff84e2 	adrp	x2, 0xff090000
ffff37ac:	79410042 	ldrh	w2, [x2, #128]
ffff37b0:	320d0042 	orr	w2, w2, #0x80000
ffff37b4:	d2800103 	mov	x3, #0x8                   	// #8
ffff37b8:	52800024 	mov	w4, #0x1                   	// #1
ffff37bc:	52800105 	mov	w5, #0x8                   	// #8
ffff37c0:	52800086 	mov	w6, #0x4                   	// #4
ffff37c4:	52800047 	mov	w7, #0x2                   	// #2
ffff37c8:	52800408 	mov	w8, #0x20                  	// #32
ffff37cc:	52b08009 	mov	w9, #0x84000000            	// #-2080374784
ffff37d0:	1ac1208a 	lsl	w10, w4, w1
ffff37d4:	0a00014a 	and	w10, w10, w0
ffff37d8:	3400036a 	cbz	w10, 0xffff3844
ffff37dc:	b000000a 	adrp	x10, 0xffff4000
ffff37e0:	b94c394a 	ldr	w10, [x10, #3128]
ffff37e4:	b000000b 	adrp	x11, 0xffff4000
ffff37e8:	b94c3d6b 	ldr	w11, [x11, #3132]
ffff37ec:	b86a686c 	ldr	w12, [x3, x10]
ffff37f0:	b940016b 	ldr	w11, [x11]
ffff37f4:	0a0c016b 	and	w11, w11, w12
ffff37f8:	3600016b 	tbz	w11, #0, 0xffff3824
ffff37fc:	b82a6864 	str	w4, [x3, x10]
ffff3800:	34000121 	cbz	w1, 0xffff3824
ffff3804:	b000000c 	adrp	x12, 0xffff4000
ffff3808:	b94c418c 	ldr	w12, [x12, #3136]
ffff380c:	b000000d 	adrp	x13, 0xffff4000
ffff3810:	b94c45ad 	ldr	w13, [x13, #3140]
ffff3814:	b9000182 	str	w2, [x12]
ffff3818:	b94001ac 	ldr	w12, [x13]
ffff381c:	2a09018c 	orr	w12, w12, w9
ffff3820:	b90001ac 	str	w12, [x13]
ffff3824:	3628004b 	tbz	w11, #5, 0xffff382c
ffff3828:	b82a6868 	str	w8, [x3, x10]
ffff382c:	3608004b 	tbz	w11, #1, 0xffff3834
ffff3830:	b82a6867 	str	w7, [x3, x10]
ffff3834:	3610004b 	tbz	w11, #2, 0xffff383c
ffff3838:	b82a6866 	str	w6, [x3, x10]
ffff383c:	3618004b 	tbz	w11, #3, 0xffff3844
ffff3840:	b82a6865 	str	w5, [x3, x10]
ffff3844:	11000421 	add	w1, w1, #0x1
ffff3848:	91008063 	add	x3, x3, #0x20
ffff384c:	f101a07f 	cmp	x3, #0x68
ffff3850:	54fffc01 	b.ne	0xffff37d0  // b.any
ffff3854:	d65f03c0 	ret
ffff3858:	d100c3ff 	sub	sp, sp, #0x30
ffff385c:	a9027bfd 	stp	x29, x30, [sp, #32]
ffff3860:	910083fd 	add	x29, sp, #0x20
ffff3864:	a9015bf5 	stp	x21, x22, [sp, #16]
ffff3868:	a90053f3 	stp	x19, x20, [sp]
ffff386c:	b0ff84e1 	adrp	x1, 0xff090000
ffff3870:	3947d021 	ldrb	w1, [x1, #500]
ffff3874:	aa0003f5 	mov	x21, x0
ffff3878:	340010e1 	cbz	w1, 0xffff3a94
ffff387c:	b0ff84f6 	adrp	x22, 0xff090000
ffff3880:	394272c0 	ldrb	w0, [x22, #156]
ffff3884:	7100041f 	cmp	w0, #0x1
ffff3888:	54001001 	b.ne	0xffff3a88  // b.any
ffff388c:	b0ff84f4 	adrp	x20, 0xff090000
ffff3890:	f9405281 	ldr	x1, [x20, #160]
ffff3894:	aa1503e0 	mov	x0, x21
ffff3898:	97fffe86 	bl	0xffff32b0
ffff389c:	b0ff84e0 	adrp	x0, 0xff090000
ffff38a0:	91021013 	add	x19, x0, #0x84
ffff38a4:	39404e60 	ldrb	w0, [x19, #19]
ffff38a8:	39404a61 	ldrb	w1, [x19, #18]
ffff38ac:	aa002020 	orr	x0, x1, x0, lsl #8
ffff38b0:	39404661 	ldrb	w1, [x19, #17]
ffff38b4:	39404262 	ldrb	w2, [x19, #16]
ffff38b8:	aa012041 	orr	x1, x2, x1, lsl #8
ffff38bc:	aa004020 	orr	x0, x1, x0, lsl #16
ffff38c0:	39403e61 	ldrb	w1, [x19, #15]
ffff38c4:	39403a62 	ldrb	w2, [x19, #14]
ffff38c8:	39403663 	ldrb	w3, [x19, #13]
ffff38cc:	39403264 	ldrb	w4, [x19, #12]
ffff38d0:	aa012042 	orr	x2, x2, x1, lsl #8
ffff38d4:	aa032083 	orr	x3, x4, x3, lsl #8
ffff38d8:	f9405281 	ldr	x1, [x20, #160]
ffff38dc:	aa024062 	orr	x2, x3, x2, lsl #16
ffff38e0:	aa008040 	orr	x0, x2, x0, lsl #32
ffff38e4:	53003eb4 	uxth	w20, w21
ffff38e8:	aa1403e2 	mov	x2, x20
ffff38ec:	940002ac 	bl	0xffff439c
ffff38f0:	39402e60 	ldrb	w0, [x19, #11]
ffff38f4:	39402a61 	ldrb	w1, [x19, #10]
ffff38f8:	39402662 	ldrb	w2, [x19, #9]
ffff38fc:	39402263 	ldrb	w3, [x19, #8]
ffff3900:	2a002020 	orr	w0, w1, w0, lsl #8
ffff3904:	2a022061 	orr	w1, w3, w2, lsl #8
ffff3908:	2a004020 	orr	w0, w1, w0, lsl #16
ffff390c:	0b352001 	add	w1, w0, w21, uxth
ffff3910:	39002261 	strb	w1, [x19, #8]
ffff3914:	53187c20 	lsr	w0, w1, #24
ffff3918:	39002e60 	strb	w0, [x19, #11]
ffff391c:	53107c20 	lsr	w0, w1, #16
ffff3920:	39002a60 	strb	w0, [x19, #10]
ffff3924:	53087c20 	lsr	w0, w1, #8
ffff3928:	39002660 	strb	w0, [x19, #9]
ffff392c:	39405660 	ldrb	w0, [x19, #21]
ffff3930:	39405262 	ldrb	w2, [x19, #20]
ffff3934:	2a002040 	orr	w0, w2, w0, lsl #8
ffff3938:	4b352000 	sub	w0, w0, w21, uxth
ffff393c:	39005260 	strb	w0, [x19, #20]
ffff3940:	53087c02 	lsr	w2, w0, #8
ffff3944:	39005662 	strb	w2, [x19, #21]
ffff3948:	39404e62 	ldrb	w2, [x19, #19]
ffff394c:	39404a63 	ldrb	w3, [x19, #18]
ffff3950:	aa022062 	orr	x2, x3, x2, lsl #8
ffff3954:	39404663 	ldrb	w3, [x19, #17]
ffff3958:	39404264 	ldrb	w4, [x19, #16]
ffff395c:	aa032083 	orr	x3, x4, x3, lsl #8
ffff3960:	aa024062 	orr	x2, x3, x2, lsl #16
ffff3964:	39403e63 	ldrb	w3, [x19, #15]
ffff3968:	39403a64 	ldrb	w4, [x19, #14]
ffff396c:	39403665 	ldrb	w5, [x19, #13]
ffff3970:	39403266 	ldrb	w6, [x19, #12]
ffff3974:	aa032083 	orr	x3, x4, x3, lsl #8
ffff3978:	12003c04 	and	w4, w0, #0xffff
ffff397c:	aa0520c0 	orr	x0, x6, x5, lsl #8
ffff3980:	aa034000 	orr	x0, x0, x3, lsl #16
ffff3984:	aa028002 	orr	x2, x0, x2, lsl #32
ffff3988:	8b352040 	add	x0, x2, w21, uxth
ffff398c:	39003260 	strb	w0, [x19, #12]
ffff3990:	d378fc03 	lsr	x3, x0, #56
ffff3994:	39004e63 	strb	w3, [x19, #19]
ffff3998:	d370fc03 	lsr	x3, x0, #48
ffff399c:	39004a63 	strb	w3, [x19, #18]
ffff39a0:	d368fc03 	lsr	x3, x0, #40
ffff39a4:	39004663 	strb	w3, [x19, #17]
ffff39a8:	d360fc03 	lsr	x3, x0, #32
ffff39ac:	39004263 	strb	w3, [x19, #16]
ffff39b0:	d358fc03 	lsr	x3, x0, #24
ffff39b4:	39003e63 	strb	w3, [x19, #15]
ffff39b8:	d350fc03 	lsr	x3, x0, #16
ffff39bc:	39003a63 	strb	w3, [x19, #14]
ffff39c0:	d348fc03 	lsr	x3, x0, #8
ffff39c4:	39003663 	strb	w3, [x19, #13]
ffff39c8:	35000664 	cbnz	w4, 0xffff3a94
ffff39cc:	12002c23 	and	w3, w1, #0xfff
ffff39d0:	34000503 	cbz	w3, 0xffff3a70
ffff39d4:	7100047f 	cmp	w3, #0x1
ffff39d8:	54000341 	b.ne	0xffff3a40  // b.any
ffff39dc:	51000421 	sub	w1, w1, #0x1
ffff39e0:	39002261 	strb	w1, [x19, #8]
ffff39e4:	53187c20 	lsr	w0, w1, #24
ffff39e8:	39002e60 	strb	w0, [x19, #11]
ffff39ec:	53107c20 	lsr	w0, w1, #16
ffff39f0:	39002a60 	strb	w0, [x19, #10]
ffff39f4:	53087c20 	lsr	w0, w1, #8
ffff39f8:	39002660 	strb	w0, [x19, #9]
ffff39fc:	8b020280 	add	x0, x20, x2
ffff3a00:	d1000400 	sub	x0, x0, #0x1
ffff3a04:	39003260 	strb	w0, [x19, #12]
ffff3a08:	d378fc02 	lsr	x2, x0, #56
ffff3a0c:	39004e62 	strb	w2, [x19, #19]
ffff3a10:	d370fc02 	lsr	x2, x0, #48
ffff3a14:	39004a62 	strb	w2, [x19, #18]
ffff3a18:	d368fc02 	lsr	x2, x0, #40
ffff3a1c:	39004662 	strb	w2, [x19, #17]
ffff3a20:	d360fc02 	lsr	x2, x0, #32
ffff3a24:	39004262 	strb	w2, [x19, #16]
ffff3a28:	d358fc02 	lsr	x2, x0, #24
ffff3a2c:	39003e62 	strb	w2, [x19, #15]
ffff3a30:	d350fc02 	lsr	x2, x0, #16
ffff3a34:	39003a62 	strb	w2, [x19, #14]
ffff3a38:	d348fc02 	lsr	x2, x0, #8
ffff3a3c:	39003662 	strb	w2, [x19, #13]
ffff3a40:	cb214000 	sub	x0, x0, w1, uxtw
ffff3a44:	9400010a 	bl	0xffff3e6c
ffff3a48:	350000c0 	cbnz	w0, 0xffff3a60
ffff3a4c:	b0ff84e0 	adrp	x0, 0xff090000
ffff3a50:	52800141 	mov	w1, #0xa                   	// #10
ffff3a54:	b9001001 	str	w1, [x0, #16]
ffff3a58:	aa1303e0 	mov	x0, x19
ffff3a5c:	94000074 	bl	0xffff3c2c
ffff3a60:	39002e7f 	strb	wzr, [x19, #11]
ffff3a64:	39002a7f 	strb	wzr, [x19, #10]
ffff3a68:	3900267f 	strb	wzr, [x19, #9]
ffff3a6c:	3900227f 	strb	wzr, [x19, #8]
ffff3a70:	52800040 	mov	w0, #0x2                   	// #2
ffff3a74:	390272c0 	strb	w0, [x22, #156]
ffff3a78:	aa1f03e0 	mov	x0, xzr
ffff3a7c:	aa1f03e1 	mov	x1, xzr
ffff3a80:	97fffe1d 	bl	0xffff32f4
ffff3a84:	14000004 	b	0xffff3a94
ffff3a88:	7100081f 	cmp	w0, #0x2
ffff3a8c:	54000041 	b.ne	0xffff3a94  // b.any
ffff3a90:	390272df 	strb	wzr, [x22, #156]
ffff3a94:	a94053f3 	ldp	x19, x20, [sp]
ffff3a98:	a9415bf5 	ldp	x21, x22, [sp, #16]
ffff3a9c:	a9427bfd 	ldp	x29, x30, [sp, #32]
ffff3aa0:	9100c3ff 	add	sp, sp, #0x30
ffff3aa4:	d65f03c0 	ret
ffff3aa8:	d10043ff 	sub	sp, sp, #0x10
ffff3aac:	a9007bfd 	stp	x29, x30, [sp]
ffff3ab0:	910003fd 	mov	x29, sp
ffff3ab4:	b0ff84e0 	adrp	x0, 0xff090000
ffff3ab8:	91021001 	add	x1, x0, #0x84
ffff3abc:	52800100 	mov	w0, #0x8                   	// #8
ffff3ac0:	97fffdfc 	bl	0xffff32b0
ffff3ac4:	a9407bfd 	ldp	x29, x30, [sp]
ffff3ac8:	910043ff 	add	sp, sp, #0x10
ffff3acc:	14000001 	b	0xffff3ad0
ffff3ad0:	d10043ff 	sub	sp, sp, #0x10
ffff3ad4:	a9007bfd 	stp	x29, x30, [sp]
ffff3ad8:	910003fd 	mov	x29, sp
ffff3adc:	b0ff84e0 	adrp	x0, 0xff090000
ffff3ae0:	39421001 	ldrb	w1, [x0, #132]
ffff3ae4:	91021000 	add	x0, x0, #0x84
ffff3ae8:	39400403 	ldrb	w3, [x0, #1]
ffff3aec:	121b0422 	and	w2, w1, #0x60
ffff3af0:	12000c61 	and	w1, w3, #0xf
ffff3af4:	7101005f 	cmp	w2, #0x40
ffff3af8:	54000501 	b.ne	0xffff3b98  // b.any
ffff3afc:	7100303f 	cmp	w1, #0xc
ffff3b00:	54000661 	b.ne	0xffff3bcc  // b.any
ffff3b04:	b0ff84e1 	adrp	x1, 0xff090000
ffff3b08:	3947d022 	ldrb	w2, [x1, #500]
ffff3b0c:	350000a2 	cbnz	w2, 0xffff3b20
ffff3b10:	39002c1f 	strb	wzr, [x0, #11]
ffff3b14:	3900281f 	strb	wzr, [x0, #10]
ffff3b18:	3900241f 	strb	wzr, [x0, #9]
ffff3b1c:	3900201f 	strb	wzr, [x0, #8]
ffff3b20:	52800022 	mov	w2, #0x1                   	// #1
ffff3b24:	3907d022 	strb	w2, [x1, #500]
ffff3b28:	39401801 	ldrb	w1, [x0, #6]
ffff3b2c:	39401c03 	ldrb	w3, [x0, #7]
ffff3b30:	39005403 	strb	w3, [x0, #21]
ffff3b34:	39005001 	strb	w1, [x0, #20]
ffff3b38:	39402c01 	ldrb	w1, [x0, #11]
ffff3b3c:	39402803 	ldrb	w3, [x0, #10]
ffff3b40:	39402404 	ldrb	w4, [x0, #9]
ffff3b44:	39402005 	ldrb	w5, [x0, #8]
ffff3b48:	b0ff84e6 	adrp	x6, 0xff090000
ffff3b4c:	390270c2 	strb	w2, [x6, #156]
ffff3b50:	2a012061 	orr	w1, w3, w1, lsl #8
ffff3b54:	2a0420a2 	orr	w2, w5, w4, lsl #8
ffff3b58:	2a014041 	orr	w1, w2, w1, lsl #16
ffff3b5c:	350003a1 	cbnz	w1, 0xffff3bd0
ffff3b60:	39401401 	ldrb	w1, [x0, #5]
ffff3b64:	39401002 	ldrb	w2, [x0, #4]
ffff3b68:	2a012041 	orr	w1, w2, w1, lsl #8
ffff3b6c:	7111c83f 	cmp	w1, #0x472
ffff3b70:	54000361 	b.ne	0xffff3bdc  // b.any
ffff3b74:	39004c1f 	strb	wzr, [x0, #19]
ffff3b78:	3900481f 	strb	wzr, [x0, #18]
ffff3b7c:	3900441f 	strb	wzr, [x0, #17]
ffff3b80:	3900401f 	strb	wzr, [x0, #16]
ffff3b84:	39003c1f 	strb	wzr, [x0, #15]
ffff3b88:	3900381f 	strb	wzr, [x0, #14]
ffff3b8c:	3900341f 	strb	wzr, [x0, #13]
ffff3b90:	3900301f 	strb	wzr, [x0, #12]
ffff3b94:	1400000f 	b	0xffff3bd0
ffff3b98:	350001a2 	cbnz	w2, 0xffff3bcc
ffff3b9c:	7100243f 	cmp	w1, #0x9
ffff3ba0:	540000a0 	b.eq	0xffff3bb4  // b.none
ffff3ba4:	7100183f 	cmp	w1, #0x6
ffff3ba8:	540000a1 	b.ne	0xffff3bbc  // b.any
ffff3bac:	97fffcd3 	bl	0xffff2ef8
ffff3bb0:	14000008 	b	0xffff3bd0
ffff3bb4:	97fffd25 	bl	0xffff3048
ffff3bb8:	14000006 	b	0xffff3bd0
ffff3bbc:	7100143f 	cmp	w1, #0x5
ffff3bc0:	54000061 	b.ne	0xffff3bcc  // b.any
ffff3bc4:	97fffcbc 	bl	0xffff2eb4
ffff3bc8:	14000002 	b	0xffff3bd0
ffff3bcc:	97fffd14 	bl	0xffff301c
ffff3bd0:	a9407bfd 	ldp	x29, x30, [sp]
ffff3bd4:	910043ff 	add	sp, sp, #0x10
ffff3bd8:	d65f03c0 	ret
ffff3bdc:	7111c43f 	cmp	w1, #0x471
ffff3be0:	54ffff81 	b.ne	0xffff3bd0  // b.any
ffff3be4:	d0ff84e1 	adrp	x1, 0xff091000
ffff3be8:	91000021 	add	x1, x1, #0x0
ffff3bec:	39003001 	strb	w1, [x0, #12]
ffff3bf0:	d378fc22 	lsr	x2, x1, #56
ffff3bf4:	39004c02 	strb	w2, [x0, #19]
ffff3bf8:	d370fc22 	lsr	x2, x1, #48
ffff3bfc:	39004802 	strb	w2, [x0, #18]
ffff3c00:	d368fc22 	lsr	x2, x1, #40
ffff3c04:	39004402 	strb	w2, [x0, #17]
ffff3c08:	d360fc22 	lsr	x2, x1, #32
ffff3c0c:	39004002 	strb	w2, [x0, #16]
ffff3c10:	d358fc22 	lsr	x2, x1, #24
ffff3c14:	39003c02 	strb	w2, [x0, #15]
ffff3c18:	d350fc22 	lsr	x2, x1, #16
ffff3c1c:	39003802 	strb	w2, [x0, #14]
ffff3c20:	d348fc21 	lsr	x1, x1, #8
ffff3c24:	39003401 	strb	w1, [x0, #13]
ffff3c28:	17ffffea 	b	0xffff3bd0
ffff3c2c:	d10103ff 	sub	sp, sp, #0x40
ffff3c30:	a9037bfd 	stp	x29, x30, [sp, #48]
ffff3c34:	9100c3fd 	add	x29, sp, #0x30
ffff3c38:	a9025ff6 	stp	x22, x23, [sp, #32]
ffff3c3c:	a90157f4 	stp	x20, x21, [sp, #16]
ffff3c40:	f90007f3 	str	x19, [sp, #8]
ffff3c44:	39402c01 	ldrb	w1, [x0, #11]
ffff3c48:	39402802 	ldrb	w2, [x0, #10]
ffff3c4c:	2a012041 	orr	w1, w2, w1, lsl #8
ffff3c50:	39402402 	ldrb	w2, [x0, #9]
ffff3c54:	39402003 	ldrb	w3, [x0, #8]
ffff3c58:	2a022062 	orr	w2, w3, w2, lsl #8
ffff3c5c:	2a014041 	orr	w1, w2, w1, lsl #16
ffff3c60:	51000834 	sub	w20, w1, #0x2
ffff3c64:	39404c02 	ldrb	w2, [x0, #19]
ffff3c68:	39404803 	ldrb	w3, [x0, #18]
ffff3c6c:	aa022062 	orr	x2, x3, x2, lsl #8
ffff3c70:	39404403 	ldrb	w3, [x0, #17]
ffff3c74:	39404004 	ldrb	w4, [x0, #16]
ffff3c78:	aa032083 	orr	x3, x4, x3, lsl #8
ffff3c7c:	aa024062 	orr	x2, x3, x2, lsl #16
ffff3c80:	39403c03 	ldrb	w3, [x0, #15]
ffff3c84:	39403804 	ldrb	w4, [x0, #14]
ffff3c88:	aa032083 	orr	x3, x4, x3, lsl #8
ffff3c8c:	39403404 	ldrb	w4, [x0, #13]
ffff3c90:	39403005 	ldrb	w5, [x0, #12]
ffff3c94:	aa0420a4 	orr	x4, x5, x4, lsl #8
ffff3c98:	aa034083 	orr	x3, x4, x3, lsl #16
ffff3c9c:	39401404 	ldrb	w4, [x0, #5]
ffff3ca0:	39401000 	ldrb	w0, [x0, #4]
ffff3ca4:	aa028075 	orr	x21, x3, x2, lsl #32
ffff3ca8:	53007c36 	lsr	w22, w1, #0
ffff3cac:	cb2142b3 	sub	x19, x21, w1, uxtw
ffff3cb0:	2a042000 	orr	w0, w0, w4, lsl #8
ffff3cb4:	7111c41f 	cmp	w0, #0x471
ffff3cb8:	54000301 	b.ne	0xffff3d18  // b.any
ffff3cbc:	b0ff84e0 	adrp	x0, 0xff090000
ffff3cc0:	b9400c02 	ldr	w2, [x0, #12]
ffff3cc4:	b9400260 	ldr	w0, [x19]
ffff3cc8:	b0ffffe1 	adrp	x1, 0xffff0000
ffff3ccc:	911cf021 	add	x1, x1, #0x73c
ffff3cd0:	b9400021 	ldr	w1, [x1]
ffff3cd4:	34000522 	cbz	w2, 0xffff3d78
ffff3cd8:	6b21401f 	cmp	w0, w1, uxtw
ffff3cdc:	54000541 	b.ne	0xffff3d84  // b.any
ffff3ce0:	aa1303e0 	mov	x0, x19
ffff3ce4:	97fff176 	bl	0xffff02bc
ffff3ce8:	350007e0 	cbnz	w0, 0xffff3de4
ffff3cec:	b0ff84e0 	adrp	x0, 0xff090000
ffff3cf0:	52800021 	mov	w1, #0x1                   	// #1
ffff3cf4:	b9003801 	str	w1, [x0, #56]
ffff3cf8:	d2806400 	mov	x0, #0x320                 	// #800
ffff3cfc:	cb160000 	sub	x0, x0, x22
ffff3d00:	8b0002a1 	add	x1, x21, x0
ffff3d04:	b0ff84e0 	adrp	x0, 0xff090000
ffff3d08:	9100f000 	add	x0, x0, #0x3c
ffff3d0c:	d2800882 	mov	x2, #0x44                  	// #68
ffff3d10:	940001a3 	bl	0xffff439c
ffff3d14:	14000034 	b	0xffff3de4
ffff3d18:	7111c81f 	cmp	w0, #0x472
ffff3d1c:	54000641 	b.ne	0xffff3de4  // b.any
ffff3d20:	aa1f03e0 	mov	x0, xzr
ffff3d24:	aa1f03e1 	mov	x1, xzr
ffff3d28:	97fffd73 	bl	0xffff32f4
ffff3d2c:	97fffd96 	bl	0xffff3384
ffff3d30:	b0ff84e0 	adrp	x0, 0xff090000
ffff3d34:	b9400c00 	ldr	w0, [x0, #12]
ffff3d38:	34000540 	cbz	w0, 0xffff3de0
ffff3d3c:	b0ff84f5 	adrp	x21, 0xff090000
ffff3d40:	b9403aa0 	ldr	w0, [x21, #56]
ffff3d44:	34000500 	cbz	w0, 0xffff3de4
ffff3d48:	aa1403e0 	mov	x0, x20
ffff3d4c:	97fff38e 	bl	0xffff0b84
ffff3d50:	aa1303e0 	mov	x0, x19
ffff3d54:	aa1403e1 	mov	x1, x20
ffff3d58:	97fff39f 	bl	0xffff0bd4
ffff3d5c:	b0ff84e0 	adrp	x0, 0xff090000
ffff3d60:	9100f000 	add	x0, x0, #0x3c
ffff3d64:	91009000 	add	x0, x0, #0x24
ffff3d68:	97fff3c0 	bl	0xffff0c68
ffff3d6c:	340003a0 	cbz	w0, 0xffff3de0
ffff3d70:	b9003abf 	str	wzr, [x21, #56]
ffff3d74:	1400001c 	b	0xffff3de4
ffff3d78:	6b21401f 	cmp	w0, w1, uxtw
ffff3d7c:	54000340 	b.eq	0xffff3de4  // b.none
ffff3d80:	14000010 	b	0xffff3dc0
ffff3d84:	b0ff84f7 	adrp	x23, 0xff090000
ffff3d88:	b9403ae0 	ldr	w0, [x23, #56]
ffff3d8c:	340002c0 	cbz	w0, 0xffff3de4
ffff3d90:	aa1403e0 	mov	x0, x20
ffff3d94:	97fff37c 	bl	0xffff0b84
ffff3d98:	aa1303e0 	mov	x0, x19
ffff3d9c:	aa1403e1 	mov	x1, x20
ffff3da0:	97fff38d 	bl	0xffff0bd4
ffff3da4:	b0ff84e0 	adrp	x0, 0xff090000
ffff3da8:	9100f000 	add	x0, x0, #0x3c
ffff3dac:	97fff3af 	bl	0xffff0c68
ffff3db0:	34000060 	cbz	w0, 0xffff3dbc
ffff3db4:	b9003aff 	str	wzr, [x23, #56]
ffff3db8:	1400000b 	b	0xffff3de4
ffff3dbc:	b9400260 	ldr	w0, [x19]
ffff3dc0:	b0000001 	adrp	x1, 0xffff4000
ffff3dc4:	91238021 	add	x1, x1, #0x8e0
ffff3dc8:	b9400021 	ldr	w1, [x1]
ffff3dcc:	6b21401f 	cmp	w0, w1, uxtw
ffff3dd0:	54000081 	b.ne	0xffff3de0  // b.any
ffff3dd4:	d2800080 	mov	x0, #0x4                   	// #4
ffff3dd8:	cb160000 	sub	x0, x0, x22
ffff3ddc:	8b0002b3 	add	x19, x21, x0
ffff3de0:	d63f0260 	blr	x19
ffff3de4:	f94007f3 	ldr	x19, [sp, #8]
ffff3de8:	a94157f4 	ldp	x20, x21, [sp, #16]
ffff3dec:	a9425ff6 	ldp	x22, x23, [sp, #32]
ffff3df0:	a9437bfd 	ldp	x29, x30, [sp, #48]
ffff3df4:	910103ff 	add	sp, sp, #0x40
ffff3df8:	d65f03c0 	ret
ffff3dfc:	d10083ff 	sub	sp, sp, #0x20
ffff3e00:	a9017bfd 	stp	x29, x30, [sp, #16]
ffff3e04:	910043fd 	add	x29, sp, #0x10
ffff3e08:	f90007f3 	str	x19, [sp, #8]
ffff3e0c:	b0ff84e0 	adrp	x0, 0xff090000
ffff3e10:	3907d01f 	strb	wzr, [x0, #500]
ffff3e14:	b0ff84e0 	adrp	x0, 0xff090000
ffff3e18:	9102a000 	add	x0, x0, #0xa8
ffff3e1c:	b0ff84e1 	adrp	x1, 0xff090000
ffff3e20:	b900a020 	str	w0, [x1, #160]
ffff3e24:	91028021 	add	x1, x1, #0xa0
ffff3e28:	d360fc00 	lsr	x0, x0, #32
ffff3e2c:	b9000420 	str	w0, [x1, #4]
ffff3e30:	97fffd5a 	bl	0xffff3398
ffff3e34:	b0000000 	adrp	x0, 0xffff4000
ffff3e38:	b94c4813 	ldr	w19, [x0, #3144]
ffff3e3c:	b9400260 	ldr	w0, [x19]
ffff3e40:	321f0000 	orr	w0, w0, #0x2
ffff3e44:	b9000260 	str	w0, [x19]
ffff3e48:	97fffc83 	bl	0xffff3054
ffff3e4c:	97fffc9a 	bl	0xffff30b4
ffff3e50:	b9400260 	ldr	w0, [x19]
ffff3e54:	121e7800 	and	w0, w0, #0xfffffffd
ffff3e58:	b9000260 	str	w0, [x19]
ffff3e5c:	f94007f3 	ldr	x19, [sp, #8]
ffff3e60:	a9417bfd 	ldp	x29, x30, [sp, #16]
ffff3e64:	910083ff 	add	sp, sp, #0x20
ffff3e68:	17fffd42 	b	0xffff3370
ffff3e6c:	d100c3ff 	sub	sp, sp, #0x30
ffff3e70:	a9027bfd 	stp	x29, x30, [sp, #32]
ffff3e74:	910083fd 	add	x29, sp, #0x20
ffff3e78:	a90157f4 	stp	x20, x21, [sp, #16]
ffff3e7c:	f90007f3 	str	x19, [sp, #8]
ffff3e80:	aa0003f3 	mov	x19, x0
ffff3e84:	51000834 	sub	w20, w1, #0x2
ffff3e88:	38744a60 	ldrb	w0, [x19, w20, uxtw]
ffff3e8c:	51000421 	sub	w1, w1, #0x1
ffff3e90:	38614a61 	ldrb	w1, [x19, w1, uxtw]
ffff3e94:	2a002035 	orr	w21, w1, w0, lsl #8
ffff3e98:	aa1303e0 	mov	x0, x19
ffff3e9c:	aa1403e1 	mov	x1, x20
ffff3ea0:	9400001b 	bl	0xffff3f0c
ffff3ea4:	aa0003e1 	mov	x1, x0
ffff3ea8:	52800020 	mov	w0, #0x1                   	// #1
ffff3eac:	6b2122bf 	cmp	w21, w1, uxth
ffff3eb0:	540000a1 	b.ne	0xffff3ec4  // b.any
ffff3eb4:	aa1303e0 	mov	x0, x19
ffff3eb8:	aa1403e1 	mov	x1, x20
ffff3ebc:	94000029 	bl	0xffff3f60
ffff3ec0:	2a1f03e0 	mov	w0, wzr
ffff3ec4:	f94007f3 	ldr	x19, [sp, #8]
ffff3ec8:	a94157f4 	ldp	x20, x21, [sp, #16]
ffff3ecc:	a9427bfd 	ldp	x29, x30, [sp, #32]
ffff3ed0:	9100c3ff 	add	sp, sp, #0x30
ffff3ed4:	d65f03c0 	ret
ffff3ed8:	d10043ff 	sub	sp, sp, #0x10
ffff3edc:	a9007bfd 	stp	x29, x30, [sp]
ffff3ee0:	910003fd 	mov	x29, sp
ffff3ee4:	b0ff84e0 	adrp	x0, 0xff090000
ffff3ee8:	b900381f 	str	wzr, [x0, #56]
ffff3eec:	97fff698 	bl	0xffff194c
ffff3ef0:	97ffffc3 	bl	0xffff3dfc
ffff3ef4:	b0ff84e0 	adrp	x0, 0xff090000
ffff3ef8:	3947d000 	ldrb	w0, [x0, #500]
ffff3efc:	34ffffc0 	cbz	w0, 0xffff3ef4
ffff3f00:	a9407bfd 	ldp	x29, x30, [sp]
ffff3f04:	910043ff 	add	sp, sp, #0x10
ffff3f08:	d65f03c0 	ret
ffff3f0c:	aa0003e2 	mov	x2, x0
ffff3f10:	529fffe0 	mov	w0, #0xffff                	// #65535
ffff3f14:	34000241 	cbz	w1, 0xffff3f5c
ffff3f18:	52820423 	mov	w3, #0x1021                	// #4129
ffff3f1c:	52900004 	mov	w4, #0x8000                	// #32768
ffff3f20:	39400045 	ldrb	w5, [x2]
ffff3f24:	52801006 	mov	w6, #0x80                  	// #128
ffff3f28:	321f3fe7 	mov	w7, #0x1fffe               	// #131070
ffff3f2c:	0a0004e7 	and	w7, w7, w0, lsl #1
ffff3f30:	4a0300e8 	eor	w8, w7, w3
ffff3f34:	6a04001f 	tst	w0, w4
ffff3f38:	1a8800e0 	csel	w0, w7, w8, eq  // eq = none
ffff3f3c:	4a030007 	eor	w7, w0, w3
ffff3f40:	6a0600bf 	tst	w5, w6
ffff3f44:	1a870000 	csel	w0, w0, w7, eq  // eq = none
ffff3f48:	13017cc6 	asr	w6, w6, #1
ffff3f4c:	35fffee6 	cbnz	w6, 0xffff3f28
ffff3f50:	51000421 	sub	w1, w1, #0x1
ffff3f54:	91000442 	add	x2, x2, #0x1
ffff3f58:	35fffe41 	cbnz	w1, 0xffff3f20
ffff3f5c:	d65f03c0 	ret
ffff3f60:	aa1f03e3 	mov	x3, xzr
ffff3f64:	b0000002 	adrp	x2, 0xffff4000
ffff3f68:	911b8044 	add	x4, x2, #0x6e0
ffff3f6c:	f9400085 	ldr	x5, [x4]
ffff3f70:	b0ff84e2 	adrp	x2, 0xff090000
ffff3f74:	9103c042 	add	x2, x2, #0xf0
ffff3f78:	b8236845 	str	w5, [x2, x3]
ffff3f7c:	91002084 	add	x4, x4, #0x8
ffff3f80:	91001063 	add	x3, x3, #0x4
ffff3f84:	f104007f 	cmp	x3, #0x100
ffff3f88:	54ffff21 	b.ne	0xffff3f6c  // b.any
ffff3f8c:	340002a1 	cbz	w1, 0xffff3fe0
ffff3f90:	2a1f03e3 	mov	w3, wzr
ffff3f94:	2a1f03e4 	mov	w4, wzr
ffff3f98:	11000463 	add	w3, w3, #0x1
ffff3f9c:	12001c63 	and	w3, w3, #0xff
ffff3fa0:	38634845 	ldrb	w5, [x2, w3, uxtw]
ffff3fa4:	0b2440a4 	add	w4, w5, w4, uxtw
ffff3fa8:	12001c84 	and	w4, w4, #0xff
ffff3fac:	38644846 	ldrb	w6, [x2, w4, uxtw]
ffff3fb0:	38234846 	strb	w6, [x2, w3, uxtw]
ffff3fb4:	38244845 	strb	w5, [x2, w4, uxtw]
ffff3fb8:	38634846 	ldrb	w6, [x2, w3, uxtw]
ffff3fbc:	0b2540c5 	add	w5, w6, w5, uxtw
ffff3fc0:	12001ca5 	and	w5, w5, #0xff
ffff3fc4:	39400006 	ldrb	w6, [x0]
ffff3fc8:	38654845 	ldrb	w5, [x2, w5, uxtw]
ffff3fcc:	4a0600a5 	eor	w5, w5, w6
ffff3fd0:	39000005 	strb	w5, [x0]
ffff3fd4:	91000400 	add	x0, x0, #0x1
ffff3fd8:	51000421 	sub	w1, w1, #0x1
ffff3fdc:	35fffde1 	cbnz	w1, 0xffff3f98
ffff3fe0:	d65f03c0 	ret
ffff3fe4:	d10103ff 	sub	sp, sp, #0x40
ffff3fe8:	a9037bfd 	stp	x29, x30, [sp, #48]
ffff3fec:	9100c3fd 	add	x29, sp, #0x30
ffff3ff0:	a90263f7 	stp	x23, x24, [sp, #32]
ffff3ff4:	a9015bf5 	stp	x21, x22, [sp, #16]
ffff3ff8:	a90053f3 	stp	x19, x20, [sp]
ffff3ffc:	aa0203f3 	mov	x19, x2
ffff4000:	aa0103f5 	mov	x21, x1
ffff4004:	aa0003f4 	mov	x20, x0
ffff4008:	d2bfe160 	mov	x0, #0xff0b0000            	// #4278910976
ffff400c:	b9400001 	ldr	w1, [x0]
ffff4010:	52800822 	mov	w2, #0x41                  	// #65
ffff4014:	90000003 	adrp	x3, 0xffff4000
ffff4018:	b94c4c76 	ldr	w22, [x3, #3148]
ffff401c:	2a020021 	orr	w1, w1, w2
ffff4020:	b9000001 	str	w1, [x0]
ffff4024:	52800037 	mov	w23, #0x1                   	// #1
ffff4028:	b90002d7 	str	w23, [x22]
ffff402c:	52800020 	mov	w0, #0x1                   	// #1
ffff4030:	97fff1a0 	bl	0xffff06b0
ffff4034:	52800180 	mov	w0, #0xc                   	// #12
ffff4038:	b90002c0 	str	w0, [x22]
ffff403c:	52800020 	mov	w0, #0x1                   	// #1
ffff4040:	97fff19c 	bl	0xffff06b0
ffff4044:	34000273 	cbz	w19, 0xffff4090
ffff4048:	528001c0 	mov	w0, #0xe                   	// #14
ffff404c:	2a154015 	orr	w21, w0, w21, lsl #16
ffff4050:	51000ab8 	sub	w24, w21, #0x2
ffff4054:	b90002d8 	str	w24, [x22]
ffff4058:	52800020 	mov	w0, #0x1                   	// #1
ffff405c:	97fff195 	bl	0xffff06b0
ffff4060:	b90002d5 	str	w21, [x22]
ffff4064:	52800020 	mov	w0, #0x1                   	// #1
ffff4068:	97fff192 	bl	0xffff06b0
ffff406c:	90000000 	adrp	x0, 0xffff4000
ffff4070:	b94c5000 	ldr	w0, [x0, #3152]
ffff4074:	b9400000 	ldr	w0, [x0]
ffff4078:	b9000280 	str	w0, [x20]
ffff407c:	b90002d8 	str	w24, [x22]
ffff4080:	91001294 	add	x20, x20, #0x4
ffff4084:	51000673 	sub	w19, w19, #0x1
ffff4088:	114042b5 	add	w21, w21, #0x10, lsl #12
ffff408c:	35fffe33 	cbnz	w19, 0xffff4050
ffff4090:	b90002d7 	str	w23, [x22]
ffff4094:	52800020 	mov	w0, #0x1                   	// #1
ffff4098:	97fff186 	bl	0xffff06b0
ffff409c:	aa1f03e0 	mov	x0, xzr
ffff40a0:	a94053f3 	ldp	x19, x20, [sp]
ffff40a4:	a9415bf5 	ldp	x21, x22, [sp, #16]
ffff40a8:	a94263f7 	ldp	x23, x24, [sp, #32]
ffff40ac:	a9437bfd 	ldp	x29, x30, [sp, #48]
ffff40b0:	910103ff 	add	sp, sp, #0x40
ffff40b4:	d65f03c0 	ret
ffff40b8:	d10103ff 	sub	sp, sp, #0x40
ffff40bc:	a9037bfd 	stp	x29, x30, [sp, #48]
ffff40c0:	9100c3fd 	add	x29, sp, #0x30
ffff40c4:	a90263f7 	stp	x23, x24, [sp, #32]
ffff40c8:	a9015bf5 	stp	x21, x22, [sp, #16]
ffff40cc:	a90053f3 	stp	x19, x20, [sp]
ffff40d0:	aa0103f3 	mov	x19, x1
ffff40d4:	aa0003f4 	mov	x20, x0
ffff40d8:	12800000 	mov	w0, #0xffffffff            	// #-1
ffff40dc:	71007e9f 	cmp	w20, #0x1f
ffff40e0:	54000868 	b.hi	0xffff41ec  // b.pmore
ffff40e4:	34000833 	cbz	w19, 0xffff41e8
ffff40e8:	d2bfe460 	mov	x0, #0xff230000            	// #4280483840
ffff40ec:	b9400001 	ldr	w1, [x0]
ffff40f0:	121c7821 	and	w1, w1, #0xfffffff7
ffff40f4:	b9000001 	str	w1, [x0]
ffff40f8:	52807d00 	mov	w0, #0x3e8                 	// #1000
ffff40fc:	97fff16d 	bl	0xffff06b0
ffff4100:	90000000 	adrp	x0, 0xffff4000
ffff4104:	b94c5415 	ldr	w21, [x0, #3156]
ffff4108:	320983e0 	mov	w0, #0x800080              	// #8388736
ffff410c:	b90002a0 	str	w0, [x21]
ffff4110:	d2bfe160 	mov	x0, #0xff0b0000            	// #4278910976
ffff4114:	b9400001 	ldr	w1, [x0]
ffff4118:	321b0021 	orr	w1, w1, #0x20
ffff411c:	90000002 	adrp	x2, 0xffff4000
ffff4120:	b94c5856 	ldr	w22, [x2, #3160]
ffff4124:	b9000001 	str	w1, [x0]
ffff4128:	528001a0 	mov	w0, #0xd                   	// #13
ffff412c:	b90002c0 	str	w0, [x22]
ffff4130:	52800037 	mov	w23, #0x1                   	// #1
ffff4134:	52800020 	mov	w0, #0x1                   	// #1
ffff4138:	97fff15e 	bl	0xffff06b0
ffff413c:	b90002df 	str	wzr, [x22]
ffff4140:	52800020 	mov	w0, #0x1                   	// #1
ffff4144:	97fff15b 	bl	0xffff06b0
ffff4148:	2a1f03f8 	mov	w24, wzr
ffff414c:	53103e94 	lsl	w20, w20, #16
ffff4150:	1ad822e0 	lsl	w0, w23, w24
ffff4154:	0a130000 	and	w0, w0, w19
ffff4158:	340001c0 	cbz	w0, 0xffff4190
ffff415c:	90000000 	adrp	x0, 0xffff4000
ffff4160:	b94c5c00 	ldr	w0, [x0, #3164]
ffff4164:	b9000013 	str	w19, [x0]
ffff4168:	b90002d4 	str	w20, [x22]
ffff416c:	52800020 	mov	w0, #0x1                   	// #1
ffff4170:	97fff150 	bl	0xffff06b0
ffff4174:	11000a80 	add	w0, w20, #0x2
ffff4178:	b90002c0 	str	w0, [x22]
ffff417c:	52800020 	mov	w0, #0x1                   	// #1
ffff4180:	97fff14c 	bl	0xffff06b0
ffff4184:	b90002d4 	str	w20, [x22]
ffff4188:	52800020 	mov	w0, #0x1                   	// #1
ffff418c:	97fff149 	bl	0xffff06b0
ffff4190:	11000718 	add	w24, w24, #0x1
ffff4194:	11480294 	add	w20, w20, #0x200, lsl #12
ffff4198:	7100831f 	cmp	w24, #0x20
ffff419c:	54fffda1 	b.ne	0xffff4150  // b.any
ffff41a0:	52800020 	mov	w0, #0x1                   	// #1
ffff41a4:	97fff143 	bl	0xffff06b0
ffff41a8:	528001a0 	mov	w0, #0xd                   	// #13
ffff41ac:	b90002c0 	str	w0, [x22]
ffff41b0:	52800020 	mov	w0, #0x1                   	// #1
ffff41b4:	97fff13f 	bl	0xffff06b0
ffff41b8:	d2bfe160 	mov	x0, #0xff0b0000            	// #4278910976
ffff41bc:	b9400001 	ldr	w1, [x0]
ffff41c0:	121a7821 	and	w1, w1, #0xffffffdf
ffff41c4:	b9000001 	str	w1, [x0]
ffff41c8:	52a01000 	mov	w0, #0x800000              	// #8388608
ffff41cc:	b90002a0 	str	w0, [x21]
ffff41d0:	d2bfe460 	mov	x0, #0xff230000            	// #4280483840
ffff41d4:	b9400001 	ldr	w1, [x0]
ffff41d8:	321d0021 	orr	w1, w1, #0x8
ffff41dc:	b9000001 	str	w1, [x0]
ffff41e0:	52800040 	mov	w0, #0x2                   	// #2
ffff41e4:	97fff148 	bl	0xffff0704
ffff41e8:	2a1f03e0 	mov	w0, wzr
ffff41ec:	a94053f3 	ldp	x19, x20, [sp]
ffff41f0:	a9415bf5 	ldp	x21, x22, [sp, #16]
ffff41f4:	a94263f7 	ldp	x23, x24, [sp, #32]
ffff41f8:	a9437bfd 	ldp	x29, x30, [sp, #48]
ffff41fc:	910103ff 	add	sp, sp, #0x40
ffff4200:	d65f03c0 	ret
ffff4204:	d100c3ff 	sub	sp, sp, #0x30
ffff4208:	a9027bfd 	stp	x29, x30, [sp, #32]
ffff420c:	910083fd 	add	x29, sp, #0x20
ffff4210:	a90157f4 	stp	x20, x21, [sp, #16]
ffff4214:	f90007f3 	str	x19, [sp, #8]
ffff4218:	aa0103f3 	mov	x19, x1
ffff421c:	aa0003f4 	mov	x20, x0
ffff4220:	2a1f03e0 	mov	w0, wzr
ffff4224:	b90007ff 	str	wzr, [sp, #4]
ffff4228:	34000273 	cbz	w19, 0xffff4274
ffff422c:	910013f5 	add	x21, sp, #0x4
ffff4230:	52800022 	mov	w2, #0x1                   	// #1
ffff4234:	aa1503e0 	mov	x0, x21
ffff4238:	aa1403e1 	mov	x1, x20
ffff423c:	97ffff6a 	bl	0xffff3fe4
ffff4240:	b94007e0 	ldr	w0, [sp, #4]
ffff4244:	0a200261 	bic	w1, w19, w0
ffff4248:	aa1403e0 	mov	x0, x20
ffff424c:	97ffff9b 	bl	0xffff40b8
ffff4250:	52800022 	mov	w2, #0x1                   	// #1
ffff4254:	aa1503e0 	mov	x0, x21
ffff4258:	aa1403e1 	mov	x1, x20
ffff425c:	97ffff62 	bl	0xffff3fe4
ffff4260:	b94007e0 	ldr	w0, [sp, #4]
ffff4264:	2a2003e0 	mvn	w0, w0
ffff4268:	6a13001f 	tst	w0, w19
ffff426c:	1a9f07e0 	cset	w0, ne  // ne = any
ffff4270:	12000000 	and	w0, w0, #0x1
ffff4274:	f94007f3 	ldr	x19, [sp, #8]
ffff4278:	a94157f4 	ldp	x20, x21, [sp, #16]
ffff427c:	a9427bfd 	ldp	x29, x30, [sp, #32]
ffff4280:	9100c3ff 	add	sp, sp, #0x30
ffff4284:	d65f03c0 	ret
ffff4288:	d10043ff 	sub	sp, sp, #0x10
ffff428c:	a9007bfd 	stp	x29, x30, [sp]
ffff4290:	910003fd 	mov	x29, sp
ffff4294:	52800300 	mov	w0, #0x18                  	// #24
ffff4298:	97fff103 	bl	0xffff06a4
ffff429c:	97fff58e 	bl	0xffff18d4
ffff42a0:	90ff84e0 	adrp	x0, 0xff090000
ffff42a4:	b9000c1f 	str	wzr, [x0, #12]
ffff42a8:	97fff084 	bl	0xffff04b8
ffff42ac:	97fff5a8 	bl	0xffff194c
ffff42b0:	90ff84e0 	adrp	x0, 0xff090000
ffff42b4:	b900101f 	str	wzr, [x0, #16]
ffff42b8:	97fffaec 	bl	0xffff2e68
ffff42bc:	97ffff07 	bl	0xffff3ed8
ffff42c0:	14000000 	b	0xffff42c0
ffff42c4:	2a010003 	orr	w3, w0, w1
ffff42c8:	12000463 	and	w3, w3, #0x3
ffff42cc:	7100007f 	cmp	w3, #0x0
ffff42d0:	540003a1 	b.ne	0xffff4344  // b.any
ffff42d4:	f100105f 	cmp	x2, #0x4
ffff42d8:	54000363 	b.cc	0xffff4344  // b.lo, b.ul, b.last
ffff42dc:	d1001042 	sub	x2, x2, #0x4
ffff42e0:	b8404403 	ldr	w3, [x0], #4
ffff42e4:	b8404424 	ldr	w4, [x1], #4
ffff42e8:	6b04007f 	cmp	w3, w4
ffff42ec:	54ffff40 	b.eq	0xffff42d4  // b.none
ffff42f0:	12001c60 	and	w0, w3, #0xff
ffff42f4:	12001c81 	and	w1, w4, #0xff
ffff42f8:	4b010000 	sub	w0, w0, w1
ffff42fc:	d3407c00 	ubfx	x0, x0, #0, #32
ffff4300:	f100001f 	cmp	x0, #0x0
ffff4304:	540001e1 	b.ne	0xffff4340  // b.any
ffff4308:	12003c60 	and	w0, w3, #0xffff
ffff430c:	12003c81 	and	w1, w4, #0xffff
ffff4310:	4b010000 	sub	w0, w0, w1
ffff4314:	d3407c00 	ubfx	x0, x0, #0, #32
ffff4318:	f100001f 	cmp	x0, #0x0
ffff431c:	54000121 	b.ne	0xffff4340  // b.any
ffff4320:	12005c60 	and	w0, w3, #0xffffff
ffff4324:	12005c81 	and	w1, w4, #0xffffff
ffff4328:	4b010000 	sub	w0, w0, w1
ffff432c:	d3407c00 	ubfx	x0, x0, #0, #32
ffff4330:	f100001f 	cmp	x0, #0x0
ffff4334:	54000061 	b.ne	0xffff4340  // b.any
ffff4338:	53187c60 	lsr	w0, w3, #24
ffff433c:	4b446000 	sub	w0, w0, w4, lsr #24
ffff4340:	d65f03c0 	ret
ffff4344:	f100005f 	cmp	x2, #0x0
ffff4348:	54000061 	b.ne	0xffff4354  // b.any
ffff434c:	52800000 	mov	w0, #0x0                   	// #0
ffff4350:	d65f03c0 	ret
ffff4354:	92400043 	and	x3, x2, #0x1
ffff4358:	f100007f 	cmp	x3, #0x0
ffff435c:	54000060 	b.eq	0xffff4368  // b.none
ffff4360:	91000442 	add	x2, x2, #0x1
ffff4364:	14000005 	b	0xffff4378
ffff4368:	38401403 	ldrb	w3, [x0], #1
ffff436c:	38401424 	ldrb	w4, [x1], #1
ffff4370:	6b040063 	subs	w3, w3, w4
ffff4374:	54000101 	b.ne	0xffff4394  // b.any
ffff4378:	38401403 	ldrb	w3, [x0], #1
ffff437c:	38401424 	ldrb	w4, [x1], #1
ffff4380:	6b040063 	subs	w3, w3, w4
ffff4384:	54000081 	b.ne	0xffff4394  // b.any
ffff4388:	d1000842 	sub	x2, x2, #0x2
ffff438c:	f100005f 	cmp	x2, #0x0
ffff4390:	54fffec1 	b.ne	0xffff4368  // b.any
ffff4394:	2a0303e0 	mov	w0, w3
ffff4398:	d65f03c0 	ret
ffff439c:	d10083ff 	sub	sp, sp, #0x20
ffff43a0:	f9000bfe 	str	x30, [sp, #16]
ffff43a4:	a90077f3 	stp	x19, x29, [sp]
ffff43a8:	910023fd 	add	x29, sp, #0x8
ffff43ac:	aa0003f3 	mov	x19, x0
ffff43b0:	94000034 	bl	0xffff4480
ffff43b4:	aa1303e0 	mov	x0, x19
ffff43b8:	a94077f3 	ldp	x19, x29, [sp]
ffff43bc:	f9400bfe 	ldr	x30, [sp, #16]
ffff43c0:	910083ff 	add	sp, sp, #0x20
ffff43c4:	d65f03c0 	ret
ffff43c8:	d10083ff 	sub	sp, sp, #0x20
ffff43cc:	f9000bfe 	str	x30, [sp, #16]
ffff43d0:	a90077f3 	stp	x19, x29, [sp]
ffff43d4:	910023fd 	add	x29, sp, #0x8
ffff43d8:	aa0003f3 	mov	x19, x0
ffff43dc:	2a0103e0 	mov	w0, w1
ffff43e0:	aa0203e1 	mov	x1, x2
ffff43e4:	12001c03 	and	w3, w0, #0xff
ffff43e8:	0b032063 	add	w3, w3, w3, lsl #8
ffff43ec:	0b034062 	add	w2, w3, w3, lsl #16
ffff43f0:	aa1303e0 	mov	x0, x19
ffff43f4:	94000066 	bl	0xffff458c
ffff43f8:	aa1303e0 	mov	x0, x19
ffff43fc:	a94077f3 	ldp	x19, x29, [sp]
ffff4400:	f9400bfe 	ldr	x30, [sp, #16]
ffff4404:	910083ff 	add	sp, sp, #0x20
ffff4408:	d65f03c0 	ret
ffff440c:	14000008 	b	0xffff442c
ffff4410:	29401023 	ldp	w3, w4, [x1]
ffff4414:	29411825 	ldp	w5, w6, [x1, #8]
ffff4418:	29001003 	stp	w3, w4, [x0]
ffff441c:	29011805 	stp	w5, w6, [x0, #8]
ffff4420:	91004000 	add	x0, x0, #0x10
ffff4424:	91004021 	add	x1, x1, #0x10
ffff4428:	d1004042 	sub	x2, x2, #0x10
ffff442c:	f100405f 	cmp	x2, #0x10
ffff4430:	54ffff02 	b.cs	0xffff4410  // b.hs, b.nlast
ffff4434:	f100205f 	cmp	x2, #0x8
ffff4438:	540000c3 	b.cc	0xffff4450  // b.lo, b.ul, b.last
ffff443c:	29401023 	ldp	w3, w4, [x1]
ffff4440:	29001003 	stp	w3, w4, [x0]
ffff4444:	91002000 	add	x0, x0, #0x8
ffff4448:	91002021 	add	x1, x1, #0x8
ffff444c:	d1002042 	sub	x2, x2, #0x8
ffff4450:	f100105f 	cmp	x2, #0x4
ffff4454:	540000e3 	b.cc	0xffff4470  // b.lo, b.ul, b.last
ffff4458:	b8404423 	ldr	w3, [x1], #4
ffff445c:	b8004403 	str	w3, [x0], #4
ffff4460:	d1001042 	sub	x2, x2, #0x4
ffff4464:	14000003 	b	0xffff4470
ffff4468:	38401423 	ldrb	w3, [x1], #1
ffff446c:	38001403 	strb	w3, [x0], #1
ffff4470:	d1000442 	sub	x2, x2, #0x1
ffff4474:	b100045f 	cmn	x2, #0x1
ffff4478:	54ffff81 	b.ne	0xffff4468  // b.any
ffff447c:	d65f03c0 	ret
ffff4480:	f100105f 	cmp	x2, #0x4
ffff4484:	540004e3 	b.cc	0xffff4520  // b.lo, b.ul, b.last
ffff4488:	12000403 	and	w3, w0, #0x3
ffff448c:	7100007f 	cmp	w3, #0x0
ffff4490:	54000200 	b.eq	0xffff44d0  // b.none
ffff4494:	38401423 	ldrb	w3, [x1], #1
ffff4498:	38001403 	strb	w3, [x0], #1
ffff449c:	d1000442 	sub	x2, x2, #0x1
ffff44a0:	12000403 	and	w3, w0, #0x3
ffff44a4:	7100007f 	cmp	w3, #0x0
ffff44a8:	54000140 	b.eq	0xffff44d0  // b.none
ffff44ac:	38401423 	ldrb	w3, [x1], #1
ffff44b0:	38001403 	strb	w3, [x0], #1
ffff44b4:	d1000442 	sub	x2, x2, #0x1
ffff44b8:	12000403 	and	w3, w0, #0x3
ffff44bc:	7100007f 	cmp	w3, #0x0
ffff44c0:	54000080 	b.eq	0xffff44d0  // b.none
ffff44c4:	38401423 	ldrb	w3, [x1], #1
ffff44c8:	38001403 	strb	w3, [x0], #1
ffff44cc:	d1000442 	sub	x2, x2, #0x1
ffff44d0:	12000423 	and	w3, w1, #0x3
ffff44d4:	7100007f 	cmp	w3, #0x0
ffff44d8:	540000e0 	b.eq	0xffff44f4  // b.none
ffff44dc:	cb234021 	sub	x1, x1, w3, uxtw
ffff44e0:	531d7065 	lsl	w5, w3, #3
ffff44e4:	52800403 	mov	w3, #0x20                  	// #32
ffff44e8:	4b050064 	sub	w4, w3, w5
ffff44ec:	b8404423 	ldr	w3, [x1], #4
ffff44f0:	14000008 	b	0xffff4510
ffff44f4:	17ffffc6 	b	0xffff440c
ffff44f8:	1ac52466 	lsr	w6, w3, w5
ffff44fc:	b8404423 	ldr	w3, [x1], #4
ffff4500:	1ac42067 	lsl	w7, w3, w4
ffff4504:	2a0600e6 	orr	w6, w7, w6
ffff4508:	b8004406 	str	w6, [x0], #4
ffff450c:	d1001042 	sub	x2, x2, #0x4
ffff4510:	f100105f 	cmp	x2, #0x4
ffff4514:	54ffff22 	b.cs	0xffff44f8  // b.hs, b.nlast
ffff4518:	53037c83 	lsr	w3, w4, #3
ffff451c:	cb234021 	sub	x1, x1, w3, uxtw
ffff4520:	f1000442 	subs	x2, x2, #0x1
ffff4524:	54000164 	b.mi	0xffff4550  // b.first
ffff4528:	38401423 	ldrb	w3, [x1], #1
ffff452c:	38001403 	strb	w3, [x0], #1
ffff4530:	f1000442 	subs	x2, x2, #0x1
ffff4534:	540000e4 	b.mi	0xffff4550  // b.first
ffff4538:	38401423 	ldrb	w3, [x1], #1
ffff453c:	38001403 	strb	w3, [x0], #1
ffff4540:	f1000442 	subs	x2, x2, #0x1
ffff4544:	54000064 	b.mi	0xffff4550  // b.first
ffff4548:	39400021 	ldrb	w1, [x1]
ffff454c:	39000001 	strb	w1, [x0]
ffff4550:	d65f03c0 	ret
ffff4554:	14000003 	b	0xffff4560
ffff4558:	b8004402 	str	w2, [x0], #4
ffff455c:	d1001021 	sub	x1, x1, #0x4
ffff4560:	f100103f 	cmp	x1, #0x4
ffff4564:	54ffffa2 	b.cs	0xffff4558  // b.hs, b.nlast
ffff4568:	927f0023 	and	x3, x1, #0x2
ffff456c:	f100007f 	cmp	x3, #0x0
ffff4570:	54000040 	b.eq	0xffff4578  // b.none
ffff4574:	78002402 	strh	w2, [x0], #2
ffff4578:	92400021 	and	x1, x1, #0x1
ffff457c:	f100003f 	cmp	x1, #0x0
ffff4580:	54000040 	b.eq	0xffff4588  // b.none
ffff4584:	39000002 	strb	w2, [x0]
ffff4588:	d65f03c0 	ret
ffff458c:	f100043f 	cmp	x1, #0x1
ffff4590:	540000c3 	b.cc	0xffff45a8  // b.lo, b.ul, b.last
ffff4594:	12000003 	and	w3, w0, #0x1
ffff4598:	7100007f 	cmp	w3, #0x0
ffff459c:	54000060 	b.eq	0xffff45a8  // b.none
ffff45a0:	38001402 	strb	w2, [x0], #1
ffff45a4:	d1000421 	sub	x1, x1, #0x1
ffff45a8:	f100083f 	cmp	x1, #0x2
ffff45ac:	540000c3 	b.cc	0xffff45c4  // b.lo, b.ul, b.last
ffff45b0:	121f0003 	and	w3, w0, #0x2
ffff45b4:	7100007f 	cmp	w3, #0x0
ffff45b8:	54000060 	b.eq	0xffff45c4  // b.none
ffff45bc:	78002402 	strh	w2, [x0], #2
ffff45c0:	d1000821 	sub	x1, x1, #0x2
ffff45c4:	17ffffe4 	b	0xffff4554
ffff45c8:	52800002 	mov	w2, #0x0                   	// #0
ffff45cc:	17fffff0 	b	0xffff458c
ffff45d0:	52800002 	mov	w2, #0x0                   	// #0
ffff45d4:	17ffffe0 	b	0xffff4554
ffff45d8:	f1000400 	subs	x0, x0, #0x1
ffff45dc:	54ffffe8 	b.hi	0xffff45d8  // b.pmore
ffff45e0:	d65f03c0 	ret
ffff45e4:	d53e1100 	mrs	x0, scr_el3
ffff45e8:	b27f0000 	orr	x0, x0, #0x2
ffff45ec:	d51e1100 	msr	scr_el3, x0
ffff45f0:	d50342ff 	msr	daifclr, #0x2
ffff45f4:	d65f03c0 	ret
ffff45f8:	d61f0000 	br	x0
ffff45fc:	00000000 	udf	#0
ffff4600:	ffff220c 	.inst	0xffff220c ; undefined
ffff4604:	00000000 	udf	#0
ffff4608:	ffff2a78 	.inst	0xffff2a78 ; undefined
ffff460c:	00000000 	udf	#0
ffff4610:	ffff2b24 	.inst	0xffff2b24 ; undefined
ffff4614:	00000000 	udf	#0
ffff4618:	00000005 	udf	#5
ffff461c:	00000002 	udf	#2
ffff4620:	ffff1a9c 	.inst	0xffff1a9c ; undefined
ffff4624:	00000000 	udf	#0
ffff4628:	ffff1f08 	.inst	0xffff1f08 ; undefined
ffff462c:	00000000 	udf	#0
ffff4630:	ffff1f70 	.inst	0xffff1f70 ; undefined
ffff4634:	00000000 	udf	#0
ffff4638:	0000000d 	udf	#13
ffff463c:	00000003 	udf	#3
ffff4640:	ffff1bc0 	.inst	0xffff1bc0 ; undefined
ffff4644:	00000000 	udf	#0
ffff4648:	ffff1f08 	.inst	0xffff1f08 ; undefined
ffff464c:	00000000 	udf	#0
ffff4650:	ffff1f70 	.inst	0xffff1f70 ; undefined
ffff4654:	00000000 	udf	#0
ffff4658:	0000000d 	udf	#13
ffff465c:	00000004 	udf	#4
ffff4660:	ffff2468 	.inst	0xffff2468 ; undefined
ffff4664:	00000000 	udf	#0
ffff4668:	ffff2a78 	.inst	0xffff2a78 ; undefined
ffff466c:	00000000 	udf	#0
ffff4670:	ffff2b24 	.inst	0xffff2b24 ; undefined
ffff4674:	00000000 	udf	#0
ffff4678:	00000005 	udf	#5
ffff467c:	00000005 	udf	#5
ffff4680:	ffff35c8 	.inst	0xffff35c8 ; undefined
ffff4684:	00000000 	udf	#0
ffff4688:	ffff35b0 	.inst	0xffff35b0 ; undefined
ffff468c:	00000000 	udf	#0
ffff4690:	ffff35b0 	.inst	0xffff35b0 ; undefined
ffff4694:	00000000 	udf	#0
ffff4698:	ffff3620 	.inst	0xffff3620 ; undefined
ffff469c:	00000000 	udf	#0
ffff46a0:	ffff35d8 	.inst	0xffff35d8 ; undefined
ffff46a4:	00000000 	udf	#0
ffff46a8:	02000112 	.inst	0x02000112 ; undefined
ffff46ac:	40000000 	.inst	0x40000000 ; undefined
ffff46b0:	320c2207 	orr	w7, w16, #0x1ff00000
ffff46b4:	00000100 	udf	#256
ffff46b8:	00000100 	udf	#256
ffff46bc:	00200209 	.inst	0x00200209 ; NYI
ffff46c0:	80000101 	.inst	0x80000101 ; undefined
ffff46c4:	000409c8 	.inst	0x000409c8 ; undefined
ffff46c8:	06ff0200 	.inst	0x06ff0200 ; undefined
ffff46cc:	05070005 	.inst	0x05070005 ; undefined
ffff46d0:	02000281 	.inst	0x02000281 ; undefined
ffff46d4:	02050700 	.inst	0x02050700 ; undefined
ffff46d8:	00020002 	.inst	0x00020002 ; undefined
ffff46dc:	00000000 	udf	#0
ffff46e0:	62987d7a 	.inst	0x62987d7a ; undefined
ffff46e4:	00000000 	udf	#0
ffff46e8:	be3d3a96 	.inst	0xbe3d3a96 ; undefined
ffff46ec:	00000000 	udf	#0
ffff46f0:	1246c185 	.inst	0x1246c185 ; undefined
ffff46f4:	00000000 	udf	#0
ffff46f8:	89ebc6ac 	.inst	0x89ebc6ac ; undefined
ffff46fc:	00000000 	udf	#0
ffff4700:	780fbd97 	strh	w23, [x12, #251]!
ffff4704:	00000000 	udf	#0
ffff4708:	e2b5da8b 	.inst	0xe2b5da8b ; undefined
ffff470c:	00000000 	udf	#0
ffff4710:	dc613427 	.inst	0xdc613427 ; undefined
ffff4714:	00000000 	udf	#0
ffff4718:	0ee6f5ed 	.inst	0x0ee6f5ed ; undefined
ffff471c:	00000000 	udf	#0
ffff4720:	72eceed6 	.inst	0x72eceed6 ; undefined
ffff4724:	00000000 	udf	#0
ffff4728:	4f041a31 	fmla	v17.8h, v17.8h, v4.h[4]
ffff472c:	00000000 	udf	#0
ffff4730:	254e70db 	bics	p11.b, p12/z, p6.b, p14.b
ffff4734:	00000000 	udf	#0
ffff4738:	6fc37ece 	.inst	0x6fc37ece ; undefined
ffff473c:	00000000 	udf	#0
ffff4740:	9059793c 	adrp	x28, 0xb2f18000
ffff4744:	00000000 	udf	#0
ffff4748:	c9335374 	.inst	0xc9335374 ; undefined
ffff474c:	00000000 	udf	#0
ffff4750:	42115884 	.inst	0x42115884 ; undefined
ffff4754:	00000000 	udf	#0
ffff4758:	755b5d0a 	.inst	0x755b5d0a ; undefined
ffff475c:	00000000 	udf	#0
ffff4760:	40c8b067 	.inst	0x40c8b067 ; undefined
ffff4764:	00000000 	udf	#0
ffff4768:	cd602d2f 	.inst	0xcd602d2f ; undefined
ffff476c:	00000000 	udf	#0
ffff4770:	249c555e 	cmpgt	p14.s, p5/z, z10.s, z28.d
ffff4774:	00000000 	udf	#0
ffff4778:	e0aa717c 	.inst	0xe0aa717c ; undefined
ffff477c:	00000000 	udf	#0
ffff4780:	cc6b8613 	.inst	0xcc6b8613 ; undefined
ffff4784:	00000000 	udf	#0
ffff4788:	b4fea3a8 	cbz	x8, 0xffff1bfc
ffff478c:	00000000 	udf	#0
ffff4790:	17191076 	b	0xfc638968
ffff4794:	00000000 	udf	#0
ffff4798:	1429bff3 	b	0xa64764
ffff479c:	00000000 	udf	#0
ffff47a0:	5f2c2a0b 	.inst	0x5f2c2a0b ; undefined
ffff47a4:	00000000 	udf	#0
ffff47a8:	41fff748 	.inst	0x41fff748 ; undefined
ffff47ac:	00000000 	udf	#0
ffff47b0:	d3056ad8 	.inst	0xd3056ad8 ; undefined
ffff47b4:	00000000 	udf	#0
ffff47b8:	d477355c 	.inst	0xd477355c ; undefined
ffff47bc:	00000000 	udf	#0
ffff47c0:	e4267ff1 	st2b	{z17.b, z18.b}, p7, [sp, x6]
ffff47c4:	00000000 	udf	#0
ffff47c8:	00f0471c 	.inst	0x00f0471c ; undefined
ffff47cc:	00000000 	udf	#0
ffff47d0:	9a8eb822 	.inst	0x9a8eb822 ; undefined
ffff47d4:	00000000 	udf	#0
ffff47d8:	a74d2bbc 	.inst	0xa74d2bbc ; undefined
ffff47dc:	00000000 	udf	#0
ffff47e0:	3b203609 	.inst	0x3b203609 ; undefined
ffff47e4:	00000000 	udf	#0
ffff47e8:	8f9dc266 	.inst	0x8f9dc266 ; undefined
ffff47ec:	00000000 	udf	#0
ffff47f0:	e1f87bf9 	.inst	0xe1f87bf9 ; undefined
ffff47f4:	00000000 	udf	#0
ffff47f8:	e8e76980 	.inst	0xe8e76980 ; undefined
ffff47fc:	00000000 	udf	#0
ffff4800:	3ebba592 	.inst	0x3ebba592 ; undefined
ffff4804:	00000000 	udf	#0
ffff4808:	9b308ad2 	smsubl	x18, w22, w16, x2
ffff480c:	00000000 	udf	#0
ffff4810:	4916afd0 	.inst	0x4916afd0 ; undefined
ffff4814:	00000000 	udf	#0
ffff4818:	ca4aa2cb 	eor	x11, x22, x10, lsr #40
ffff481c:	00000000 	udf	#0
ffff4820:	9f64d51e 	.inst	0x9f64d51e ; undefined
ffff4824:	00000000 	udf	#0
ffff4828:	c7d1f4e9 	.inst	0xc7d1f4e9 ; undefined
ffff482c:	00000000 	udf	#0
ffff4830:	c5b7886e 	.inst	0xc5b7886e ; undefined
ffff4834:	00000000 	udf	#0
ffff4838:	56abb344 	.inst	0x56abb344 ; undefined
ffff483c:	00000000 	udf	#0
ffff4840:	4c6883fd 	.inst	0x4c6883fd ; undefined
ffff4844:	00000000 	udf	#0
ffff4848:	9ea1b9ae 	.inst	0x9ea1b9ae ; undefined
ffff484c:	00000000 	udf	#0
ffff4850:	43ea1f08 	.inst	0x43ea1f08 ; undefined
ffff4854:	00000000 	udf	#0
ffff4858:	816dfa15 	.inst	0x816dfa15 ; undefined
ffff485c:	00000000 	udf	#0
ffff4860:	028c2ed9 	.inst	0x028c2ed9 ; undefined
ffff4864:	00000000 	udf	#0
ffff4868:	52b632ef 	mov	w15, #0xb1970000            	// #-1315504128
ffff486c:	00000000 	udf	#0
ffff4870:	215a0cdf 	.inst	0x215a0cdf ; undefined
ffff4874:	00000000 	udf	#0
ffff4878:	fb5028cf 	.inst	0xfb5028cf ; undefined
ffff487c:	00000000 	udf	#0
ffff4880:	45013f39 	.inst	0x45013f39 ; undefined
ffff4884:	00000000 	udf	#0
ffff4888:	51b263d7 	.inst	0x51b263d7 ; undefined
ffff488c:	00000000 	udf	#0
ffff4890:	a49123de 	.inst	0xa49123de ; undefined
ffff4894:	00000000 	udf	#0
ffff4898:	65dde354 	facgt	p4.d, p0/z, z26.d, z29.d
ffff489c:	00000000 	udf	#0
ffff48a0:	99731d07 	.inst	0x99731d07 ; undefined
ffff48a4:	00000000 	udf	#0
ffff48a8:	ad1ba093 	stp	q19, q8, [x4, #880]
ffff48ac:	00000000 	udf	#0
ffff48b0:	c4a9066c 	ld1sh	{z12.d}, p1/z, [x19, z9.d, uxtw #1]
ffff48b4:	00000000 	udf	#0
ffff48b8:	e5948737 	st1d	{z23.d}, p1, [x25, z20.d, uxtw]
ffff48bc:	00000000 	udf	#0
ffff48c0:	1895c003 	ldr	w3, 0xfff200c0
ffff48c4:	00000000 	udf	#0
ffff48c8:	f282b14b 	movk	x11, #0x158a
ffff48cc:	00000000 	udf	#0
ffff48d0:	5738ba8d 	.inst	0x5738ba8d ; undefined
ffff48d4:	00000000 	udf	#0
ffff48d8:	fca60df6 	.inst	0xfca60df6 ; undefined
ffff48dc:	00000000 	udf	#0
ffff48e0:	32334b52 	orr	w18, w26, #0xffffe000
ffff48e4:	ff06000c 	.inst	0xff06000c ; undefined
ffff48e8:	ff060188 	.inst	0xff060188 ; undefined
ffff48ec:	ff060180 	.inst	0xff060180 ; undefined
ffff48f0:	ff060008 	.inst	0xff060008 ; undefined
ffff48f4:	ff060008 	.inst	0xff060008 ; undefined
ffff48f8:	ff06001c 	.inst	0xff06001c ; undefined
ffff48fc:	ff060020 	.inst	0xff060020 ; undefined
ffff4900:	ff060008 	.inst	0xff060008 ; undefined
ffff4904:	ff060184 	.inst	0xff060184 ; undefined
ffff4908:	ff06018c 	.inst	0xff06018c ; undefined
ffff490c:	ff060008 	.inst	0xff060008 ; undefined
ffff4910:	ff060184 	.inst	0xff060184 ; undefined
ffff4914:	ff06018c 	.inst	0xff06018c ; undefined
ffff4918:	ff060400 	.inst	0xff060400 ; undefined
ffff491c:	ff060600 	.inst	0xff060600 ; undefined
ffff4920:	ff060700 	.inst	0xff060700 ; undefined
ffff4924:	ff060500 	.inst	0xff060500 ; undefined
ffff4928:	ff060008 	.inst	0xff060008 ; undefined
ffff492c:	ff060008 	.inst	0xff060008 ; undefined
ffff4930:	ff060400 	.inst	0xff060400 ; undefined
ffff4934:	ff440310 	.inst	0xff440310 ; undefined
ffff4938:	ff060280 	.inst	0xff060280 ; undefined
ffff493c:	ff060008 	.inst	0xff060008 ; undefined
ffff4940:	ff060400 	.inst	0xff060400 ; undefined
ffff4944:	ff060600 	.inst	0xff060600 ; undefined
ffff4948:	ff060700 	.inst	0xff060700 ; undefined
ffff494c:	ff060500 	.inst	0xff060500 ; undefined
ffff4950:	ff060008 	.inst	0xff060008 ; undefined
ffff4954:	ff060184 	.inst	0xff060184 ; undefined
ffff4958:	ff06018c 	.inst	0xff06018c ; undefined
ffff495c:	ff06041c 	.inst	0xff06041c ; undefined
ffff4960:	ff060418 	.inst	0xff060418 ; undefined
ffff4964:	ff060414 	.inst	0xff060414 ; undefined
ffff4968:	ff060410 	.inst	0xff060410 ; undefined
ffff496c:	ff06040c 	.inst	0xff06040c ; undefined
ffff4970:	ff060408 	.inst	0xff060408 ; undefined
ffff4974:	ff060404 	.inst	0xff060404 ; undefined
ffff4978:	ff060400 	.inst	0xff060400 ; undefined
ffff497c:	ff06000c 	.inst	0xff06000c ; undefined
ffff4980:	ff060188 	.inst	0xff060188 ; undefined
ffff4984:	ff060180 	.inst	0xff060180 ; undefined
ffff4988:	ff060008 	.inst	0xff060008 ; undefined
ffff498c:	ff06001c 	.inst	0xff06001c ; undefined
ffff4990:	ff060020 	.inst	0xff060020 ; undefined
ffff4994:	009f0087 	.inst	0x009f0087 ; undefined
ffff4998:	ff440150 	.inst	0xff440150 ; undefined
ffff499c:	ff0d0010 	.inst	0xff0d0010 ; undefined
ffff49a0:	ff0d0014 	.inst	0xff0d0014 ; undefined
ffff49a4:	ff440318 	.inst	0xff440318 ; undefined
ffff49a8:	ff000200 	.inst	0xff000200 ; undefined
ffff49ac:	ff0d0014 	.inst	0xff0d0014 ; undefined
ffff49b0:	ff440318 	.inst	0xff440318 ; undefined
ffff49b4:	ff0d0014 	.inst	0xff0d0014 ; undefined
ffff49b8:	ff0a0020 	.inst	0xff0a0020 ; undefined
ffff49bc:	ff0a0028 	.inst	0xff0a0028 ; undefined
ffff49c0:	3a003a00 	.inst	0x3a003a00 ; undefined
ffff49c4:	ff0a0024 	.inst	0xff0a0024 ; undefined
ffff49c8:	ff0a1000 	.inst	0xff0a1000 ; undefined
ffff49cc:	ff0a0304 	.inst	0xff0a0304 ; undefined
ffff49d0:	ff0a1004 	.inst	0xff0a1004 ; undefined
ffff49d4:	ff0a002c 	.inst	0xff0a002c ; undefined
ffff49d8:	ff440318 	.inst	0xff440318 ; undefined
ffff49dc:	ff440080 	.inst	0xff440080 ; undefined
ffff49e0:	7fdf2000 	.inst	0x7fdf2000 ; undefined
ffff49e4:	ff440100 	.inst	0xff440100 ; undefined
ffff49e8:	ff440104 	.inst	0xff440104 ; undefined
ffff49ec:	df008100 	.inst	0xdf008100 ; undefined
ffff49f0:	ff440114 	.inst	0xff440114 ; undefined
ffff49f4:	00df0040 	.inst	0x00df0040 ; undefined
ffff49f8:	ff440170 	.inst	0xff440170 ; undefined
ffff49fc:	ff440174 	.inst	0xff440174 ; undefined
ffff4a00:	ff440004 	.inst	0xff440004 ; undefined
ffff4a04:	7fff40c8 	.inst	0x7fff40c8 ; undefined
ffff4a08:	01ff0043 	.inst	0x01ff0043 ; undefined
ffff4a0c:	ff440064 	.inst	0xff440064 ; undefined
ffff4a10:	7fff30c0 	.inst	0x7fff30c0 ; undefined
ffff4a14:	ff440060 	.inst	0xff440060 ; undefined
ffff4a18:	01ff0042 	.inst	0x01ff0042 ; undefined
ffff4a1c:	ff440094 	.inst	0xff440094 ; undefined
ffff4a20:	7fdf2501 	.inst	0x7fdf2501 ; undefined
ffff4a24:	ff440100 	.inst	0xff440100 ; undefined
ffff4a28:	7fdf2500 	.inst	0x7fdf2500 ; undefined
ffff4a2c:	737f1113 	.inst	0x737f1113 ; undefined
ffff4a30:	ff440104 	.inst	0xff440104 ; undefined
ffff4a34:	00df0043 	.inst	0x00df0043 ; undefined
ffff4a38:	ff440170 	.inst	0xff440170 ; undefined
ffff4a3c:	00733001 	.inst	0x00733001 ; undefined
ffff4a40:	ff440174 	.inst	0xff440174 ; undefined
ffff4a44:	ff440080 	.inst	0xff440080 ; undefined
ffff4a48:	00ff009f 	.inst	0x00ff009f ; undefined
ffff4a4c:	ff440160 	.inst	0xff440160 ; undefined
ffff4a50:	ff190010 	.inst	0xff190010 ; undefined
ffff4a54:	00300010 	.inst	0x00300010 ; NYI
ffff4a58:	ff100130 	.inst	0xff100130 ; undefined
ffff4a5c:	01ff0124 	.inst	0x01ff0124 ; undefined
ffff4a60:	ff100038 	.inst	0xff100038 ; undefined
ffff4a64:	00070003 	.inst	0x00070003 ; undefined
ffff4a68:	ff100040 	.inst	0xff100040 ; undefined
ffff4a6c:	00300020 	.inst	0x00300020 ; NYI
ffff4a70:	ff100050 	.inst	0xff100050 ; undefined
ffff4a74:	ff190008 	.inst	0xff190008 ; undefined
ffff4a78:	ff19000c 	.inst	0xff19000c ; undefined
ffff4a7c:	ff190400 	.inst	0xff190400 ; undefined
ffff4a80:	ff190024 	.inst	0xff190024 ; undefined
ffff4a84:	ff190800 	.inst	0xff190800 ; undefined
ffff4a88:	40ff8000 	.inst	0x40ff8000 ; undefined
ffff4a8c:	80ff8000 	.inst	0x80ff8000 ; undefined
ffff4a90:	c0ff8000 	.inst	0xc0ff8000 ; undefined
ffff4a94:	00012147 	.inst	0x00012147 ; undefined
ffff4a98:	03b70100 	.inst	0x03b70100 ; undefined
ffff4a9c:	03b70200 	.inst	0x03b70200 ; undefined
ffff4aa0:	00012146 	.inst	0x00012146 ; undefined
ffff4aa4:	40ff8000 	.inst	0x40ff8000 ; undefined
ffff4aa8:	c0ff8000 	.inst	0xc0ff8000 ; undefined
ffff4aac:	80ff8000 	.inst	0x80ff8000 ; undefined
ffff4ab0:	00012147 	.inst	0x00012147 ; undefined
ffff4ab4:	80202000 	.inst	0x80202000 ; NYI
ffff4ab8:	03ff010f 	.inst	0x03ff010f ; undefined
ffff4abc:	ff440180 	.inst	0xff440180 ; undefined
ffff4ac0:	ff440178 	.inst	0xff440178 ; undefined
ffff4ac4:	ff520200 	.inst	0xff520200 ; undefined
ffff4ac8:	ff500200 	.inst	0xff500200 ; undefined
ffff4acc:	000186a1 	.inst	0x000186a1 ; undefined
ffff4ad0:	0003d091 	.inst	0x0003d091 ; undefined
ffff4ad4:	03ff021f 	.inst	0x03ff021f ; undefined
ffff4ad8:	ff440180 	.inst	0xff440180 ; undefined
ffff4adc:	c0008000 	mov	za0v.b[w12, 0], p0/m, z0.b
ffff4ae0:	ff00aa00 	.inst	0xff00aa00 ; undefined
ffff4ae4:	ff100034 	.inst	0xff100034 ; undefined
ffff4ae8:	3fff2aaa 	.inst	0x3fff2aaa ; undefined
ffff4aec:	ff100048 	.inst	0xff100048 ; undefined
ffff4af0:	ff440178 	.inst	0xff440178 ; undefined
ffff4af4:	3fff1555 	.inst	0x3fff1555 ; undefined
ffff4af8:	ff100010 	.inst	0xff100010 ; undefined
ffff4afc:	ff10000c 	.inst	0xff10000c ; undefined
ffff4b00:	ff1006b0 	.inst	0xff1006b0 ; undefined
ffff4b04:	80202000 	.inst	0x80202000 ; NYI
ffff4b08:	307f0080 	adr	x0, 0xf2b19
ffff4b0c:	0001414c 	.inst	0x0001414c ; undefined
ffff4b10:	fcdc8c3b 	.inst	0xfcdc8c3b ; undefined
ffff4b14:	ff580800 	.inst	0xff580800 ; undefined
ffff4b18:	ff580b00 	.inst	0xff580b00 ; undefined
ffff4b1c:	ff580900 	.inst	0xff580900 ; undefined
ffff4b20:	ff580b00 	.inst	0xff580b00 ; undefined
ffff4b24:	ff580900 	.inst	0xff580900 ; undefined
ffff4b28:	ff44031c 	.inst	0xff44031c ; undefined
ffff4b2c:	ff580010 	.inst	0xff580010 ; undefined
ffff4b30:	ff580e00 	.inst	0xff580e00 ; undefined
ffff4b34:	ff580800 	.inst	0xff580800 ; undefined
ffff4b38:	ff580028 	.inst	0xff580028 ; undefined
ffff4b3c:	ff580900 	.inst	0xff580900 ; undefined
ffff4b40:	ff580910 	.inst	0xff580910 ; undefined
ffff4b44:	ff580914 	.inst	0xff580914 ; undefined
ffff4b48:	ff580908 	.inst	0xff580908 ; undefined
ffff4b4c:	ff580b00 	.inst	0xff580b00 ; undefined
ffff4b50:	ff580b10 	.inst	0xff580b10 ; undefined
ffff4b54:	ff580b14 	.inst	0xff580b14 ; undefined
ffff4b58:	ff580b08 	.inst	0xff580b08 ; undefined
ffff4b5c:	ff580810 	.inst	0xff580810 ; undefined
ffff4b60:	ff580040 	.inst	0xff580040 ; undefined
ffff4b64:	4f543009 	sqdmlal2	v9.4s, v0.8h, v4.h[1]
ffff4b68:	ff580814 	.inst	0xff580814 ; undefined
ffff4b6c:	ff580818 	.inst	0xff580818 ; undefined
ffff4b70:	ff58081c 	.inst	0xff58081c ; undefined
ffff4b74:	ff580014 	.inst	0xff580014 ; undefined
ffff4b78:	ff580004 	.inst	0xff580004 ; undefined
ffff4b7c:	c00c3c10 	.inst	0xc00c3c10 ; undefined
ffff4b80:	ff580018 	.inst	0xff580018 ; undefined
ffff4b84:	ff580008 	.inst	0xff580008 ; undefined
ffff4b88:	ff581000 	.inst	0xff581000 ; undefined
ffff4b8c:	20080040 	.inst	0x20080040 ; undefined
ffff4b90:	ff580b10 	.inst	0xff580b10 ; undefined
ffff4b94:	ff58002c 	.inst	0xff58002c ; undefined
ffff4b98:	ff580910 	.inst	0xff580910 ; undefined
ffff4b9c:	ff580900 	.inst	0xff580900 ; undefined
ffff4ba0:	ff581000 	.inst	0xff581000 ; undefined
ffff4ba4:	ff811104 	.inst	0xff811104 ; undefined
ffff4ba8:	ff811184 	.inst	0xff811184 ; undefined
ffff4bac:	ff812000 	.inst	0xff812000 ; undefined
ffff4bb0:	ff812004 	.inst	0xff812004 ; undefined
ffff4bb4:	ff811c0c 	.inst	0xff811c0c ; undefined
ffff4bb8:	ff811180 	.inst	0xff811180 ; undefined
ffff4bbc:	ff811184 	.inst	0xff811184 ; undefined
ffff4bc0:	ff811188 	.inst	0xff811188 ; undefined
ffff4bc4:	ff81118c 	.inst	0xff81118c ; undefined
ffff4bc8:	ff811834 	.inst	0xff811834 ; undefined
ffff4bcc:	ff811000 	.inst	0xff811000 ; undefined
ffff4bd0:	ff81200c 	.inst	0xff81200c ; undefined
ffff4bd4:	ff812010 	.inst	0xff812010 ; undefined
ffff4bd8:	ff580014 	.inst	0xff580014 ; undefined
ffff4bdc:	ff580018 	.inst	0xff580018 ; undefined
ffff4be0:	ff580834 	.inst	0xff580834 ; undefined
ffff4be4:	ff580804 	.inst	0xff580804 ; undefined
ffff4be8:	c0420cc0 	mov	z0.h, p3/m, za0h.h[w12, 6]
ffff4bec:	ff580020 	.inst	0xff580020 ; undefined
ffff4bf0:	84008000 	ldnt1sb	{z0.s}, p0/z, [z0.s, x0]
ffff4bf4:	ff580b00 	.inst	0xff580b00 ; undefined
ffff4bf8:	ff580040 	.inst	0xff580040 ; undefined
ffff4bfc:	4f54300a 	sqdmlal2	v10.4s, v0.8h, v4.h[1]
ffff4c00:	ff580804 	.inst	0xff580804 ; undefined
ffff4c04:	ff580808 	.inst	0xff580808 ; undefined
ffff4c08:	ff580900 	.inst	0xff580900 ; undefined
ffff4c0c:	20080040 	.inst	0x20080040 ; undefined
ffff4c10:	ff580b10 	.inst	0xff580b10 ; undefined
ffff4c14:	ff580b00 	.inst	0xff580b00 ; undefined
ffff4c18:	ff580804 	.inst	0xff580804 ; undefined
ffff4c1c:	ff580818 	.inst	0xff580818 ; undefined
ffff4c20:	ff58081c 	.inst	0xff58081c ; undefined
ffff4c24:	ff580810 	.inst	0xff580810 ; undefined
ffff4c28:	ff580834 	.inst	0xff580834 ; undefined
ffff4c2c:	ff580908 	.inst	0xff580908 ; undefined
ffff4c30:	ff580818 	.inst	0xff580818 ; undefined
ffff4c34:	ff58081c 	.inst	0xff58081c ; undefined
ffff4c38:	ff580b00 	.inst	0xff580b00 ; undefined
ffff4c3c:	ff580814 	.inst	0xff580814 ; undefined
ffff4c40:	ff580b50 	.inst	0xff580b50 ; undefined
ffff4c44:	ff580b40 	.inst	0xff580b40 ; undefined
ffff4c48:	ff580804 	.inst	0xff580804 ; undefined
ffff4c4c:	ff0b001c 	.inst	0xff0b001c ; undefined
ffff4c50:	ff0b0020 	.inst	0xff0b0020 ; undefined
ffff4c54:	ff0d0014 	.inst	0xff0d0014 ; undefined
ffff4c58:	ff0b001c 	.inst	0xff0b001c ; undefined
ffff4c5c:	ff0b0020 	.inst	0xff0b0020 ; undefined
ffff4c60:	00000000 	udf	#0
ffff4c64:	00000000 	udf	#0
ffff4c68:	00000000 	udf	#0
ffff4c6c:	00000000 	udf	#0
ffff4c70:	00000000 	udf	#0
ffff4c74:	00000000 	udf	#0
ffff4c78:	00000000 	udf	#0
ffff4c7c:	00000000 	udf	#0
ffff4c80:	00000000 	udf	#0
ffff4c84:	00000000 	udf	#0
ffff4c88:	00000000 	udf	#0
ffff4c8c:	00000000 	udf	#0
ffff4c90:	00000000 	udf	#0
ffff4c94:	00000000 	udf	#0
ffff4c98:	00000000 	udf	#0
ffff4c9c:	00000000 	udf	#0
ffff4ca0:	00000000 	udf	#0
ffff4ca4:	00000000 	udf	#0
ffff4ca8:	00000000 	udf	#0
ffff4cac:	00000000 	udf	#0
ffff4cb0:	00000000 	udf	#0
ffff4cb4:	00000000 	udf	#0
ffff4cb8:	00000000 	udf	#0
ffff4cbc:	00000000 	udf	#0
ffff4cc0:	00000000 	udf	#0
ffff4cc4:	00000000 	udf	#0
ffff4cc8:	00000000 	udf	#0
ffff4ccc:	00000000 	udf	#0
ffff4cd0:	00000000 	udf	#0
ffff4cd4:	00000000 	udf	#0
ffff4cd8:	00000000 	udf	#0
ffff4cdc:	00000000 	udf	#0
ffff4ce0:	00000000 	udf	#0
ffff4ce4:	00000000 	udf	#0
ffff4ce8:	00000000 	udf	#0
ffff4cec:	00000000 	udf	#0
ffff4cf0:	00000000 	udf	#0
ffff4cf4:	00000000 	udf	#0
ffff4cf8:	00000000 	udf	#0
ffff4cfc:	00000000 	udf	#0
ffff4d00:	00000000 	udf	#0
ffff4d04:	00000000 	udf	#0
ffff4d08:	00000000 	udf	#0
ffff4d0c:	00000000 	udf	#0
ffff4d10:	00000000 	udf	#0
ffff4d14:	00000000 	udf	#0
ffff4d18:	00000000 	udf	#0
ffff4d1c:	00000000 	udf	#0
ffff4d20:	00000000 	udf	#0
ffff4d24:	00000000 	udf	#0
ffff4d28:	00000000 	udf	#0
ffff4d2c:	00000000 	udf	#0
ffff4d30:	00000000 	udf	#0
ffff4d34:	00000000 	udf	#0
ffff4d38:	00000000 	udf	#0
ffff4d3c:	00000000 	udf	#0
ffff4d40:	00000000 	udf	#0
ffff4d44:	00000000 	udf	#0
ffff4d48:	00000000 	udf	#0
ffff4d4c:	00000000 	udf	#0
ffff4d50:	00000000 	udf	#0
ffff4d54:	00000000 	udf	#0
ffff4d58:	00000000 	udf	#0
ffff4d5c:	00000000 	udf	#0
ffff4d60:	00000000 	udf	#0
ffff4d64:	00000000 	udf	#0
ffff4d68:	00000000 	udf	#0
ffff4d6c:	00000000 	udf	#0
ffff4d70:	00000000 	udf	#0
ffff4d74:	00000000 	udf	#0
ffff4d78:	00000000 	udf	#0
ffff4d7c:	00000000 	udf	#0
ffff4d80:	00000000 	udf	#0
ffff4d84:	00000000 	udf	#0
ffff4d88:	00000000 	udf	#0
ffff4d8c:	00000000 	udf	#0
ffff4d90:	00000000 	udf	#0
ffff4d94:	00000000 	udf	#0
ffff4d98:	00000000 	udf	#0
ffff4d9c:	00000000 	udf	#0
ffff4da0:	00000000 	udf	#0
ffff4da4:	00000000 	udf	#0
ffff4da8:	00000000 	udf	#0
ffff4dac:	00000000 	udf	#0
ffff4db0:	00000000 	udf	#0
ffff4db4:	00000000 	udf	#0
ffff4db8:	00000000 	udf	#0
ffff4dbc:	00000000 	udf	#0
ffff4dc0:	00000000 	udf	#0
ffff4dc4:	00000000 	udf	#0
ffff4dc8:	00000000 	udf	#0
ffff4dcc:	00000000 	udf	#0
ffff4dd0:	00000000 	udf	#0
ffff4dd4:	00000000 	udf	#0
ffff4dd8:	00000000 	udf	#0
ffff4ddc:	00000000 	udf	#0
ffff4de0:	00000000 	udf	#0
ffff4de4:	00000000 	udf	#0
ffff4de8:	00000000 	udf	#0
ffff4dec:	00000000 	udf	#0
ffff4df0:	00000000 	udf	#0
ffff4df4:	00000000 	udf	#0
ffff4df8:	00000000 	udf	#0
ffff4dfc:	00000000 	udf	#0
ffff4e00:	00000000 	udf	#0
ffff4e04:	00000000 	udf	#0
ffff4e08:	00000000 	udf	#0
ffff4e0c:	00000000 	udf	#0
ffff4e10:	00000000 	udf	#0
ffff4e14:	00000000 	udf	#0
ffff4e18:	00000000 	udf	#0
ffff4e1c:	00000000 	udf	#0
ffff4e20:	00000000 	udf	#0
ffff4e24:	00000000 	udf	#0
ffff4e28:	00000000 	udf	#0
ffff4e2c:	00000000 	udf	#0
ffff4e30:	00000000 	udf	#0
ffff4e34:	00000000 	udf	#0
ffff4e38:	00000000 	udf	#0
ffff4e3c:	00000000 	udf	#0
ffff4e40:	00000000 	udf	#0
ffff4e44:	00000000 	udf	#0
ffff4e48:	00000000 	udf	#0
ffff4e4c:	00000000 	udf	#0
ffff4e50:	00000000 	udf	#0
ffff4e54:	00000000 	udf	#0
ffff4e58:	00000000 	udf	#0
ffff4e5c:	00000000 	udf	#0
ffff4e60:	00000000 	udf	#0
ffff4e64:	00000000 	udf	#0
ffff4e68:	00000000 	udf	#0
ffff4e6c:	00000000 	udf	#0
ffff4e70:	00000000 	udf	#0
ffff4e74:	00000000 	udf	#0
ffff4e78:	00000000 	udf	#0
ffff4e7c:	00000000 	udf	#0
ffff4e80:	00000000 	udf	#0
ffff4e84:	00000000 	udf	#0
ffff4e88:	00000000 	udf	#0
ffff4e8c:	00000000 	udf	#0
ffff4e90:	00000000 	udf	#0
ffff4e94:	00000000 	udf	#0
ffff4e98:	00000000 	udf	#0
ffff4e9c:	00000000 	udf	#0
ffff4ea0:	00000000 	udf	#0
ffff4ea4:	00000000 	udf	#0
ffff4ea8:	00000000 	udf	#0
ffff4eac:	00000000 	udf	#0
ffff4eb0:	00000000 	udf	#0
ffff4eb4:	00000000 	udf	#0
ffff4eb8:	00000000 	udf	#0
ffff4ebc:	00000000 	udf	#0
ffff4ec0:	00000000 	udf	#0
ffff4ec4:	00000000 	udf	#0
ffff4ec8:	00000000 	udf	#0
ffff4ecc:	00000000 	udf	#0
ffff4ed0:	00000000 	udf	#0
ffff4ed4:	00000000 	udf	#0
ffff4ed8:	00000000 	udf	#0
ffff4edc:	00000000 	udf	#0
ffff4ee0:	00000000 	udf	#0
ffff4ee4:	00000000 	udf	#0
ffff4ee8:	00000000 	udf	#0
ffff4eec:	00000000 	udf	#0
ffff4ef0:	00000000 	udf	#0
ffff4ef4:	00000000 	udf	#0
ffff4ef8:	00000000 	udf	#0
ffff4efc:	00000000 	udf	#0
ffff4f00:	00000000 	udf	#0
ffff4f04:	00000000 	udf	#0
ffff4f08:	00000000 	udf	#0
ffff4f0c:	00000000 	udf	#0
ffff4f10:	00000000 	udf	#0
ffff4f14:	00000000 	udf	#0
ffff4f18:	00000000 	udf	#0
ffff4f1c:	00000000 	udf	#0
ffff4f20:	00000000 	udf	#0
ffff4f24:	00000000 	udf	#0
ffff4f28:	00000000 	udf	#0
ffff4f2c:	00000000 	udf	#0
ffff4f30:	00000000 	udf	#0
ffff4f34:	00000000 	udf	#0
ffff4f38:	00000000 	udf	#0
ffff4f3c:	00000000 	udf	#0
ffff4f40:	00000000 	udf	#0
ffff4f44:	00000000 	udf	#0
ffff4f48:	00000000 	udf	#0
ffff4f4c:	00000000 	udf	#0
ffff4f50:	00000000 	udf	#0
ffff4f54:	00000000 	udf	#0
ffff4f58:	00000000 	udf	#0
ffff4f5c:	00000000 	udf	#0
ffff4f60:	00000000 	udf	#0
ffff4f64:	00000000 	udf	#0
ffff4f68:	00000000 	udf	#0
ffff4f6c:	00000000 	udf	#0
ffff4f70:	00000000 	udf	#0
ffff4f74:	00000000 	udf	#0
ffff4f78:	00000000 	udf	#0
ffff4f7c:	00000000 	udf	#0
ffff4f80:	00000000 	udf	#0
ffff4f84:	00000000 	udf	#0
ffff4f88:	00000000 	udf	#0
ffff4f8c:	00000000 	udf	#0
ffff4f90:	00000000 	udf	#0
ffff4f94:	00000000 	udf	#0
ffff4f98:	00000000 	udf	#0
ffff4f9c:	00000000 	udf	#0
ffff4fa0:	00000000 	udf	#0
ffff4fa4:	00000000 	udf	#0
ffff4fa8:	00000000 	udf	#0
ffff4fac:	00000000 	udf	#0
ffff4fb0:	00000000 	udf	#0
ffff4fb4:	00000000 	udf	#0
ffff4fb8:	00000000 	udf	#0
ffff4fbc:	00000000 	udf	#0
ffff4fc0:	00000000 	udf	#0
ffff4fc4:	00000000 	udf	#0
ffff4fc8:	00000000 	udf	#0
ffff4fcc:	00000000 	udf	#0
ffff4fd0:	00000000 	udf	#0
ffff4fd4:	00000000 	udf	#0
ffff4fd8:	00000000 	udf	#0
ffff4fdc:	00000000 	udf	#0
ffff4fe0:	00000000 	udf	#0
ffff4fe4:	00000000 	udf	#0
ffff4fe8:	00000000 	udf	#0
ffff4fec:	00000000 	udf	#0
ffff4ff0:	33323043 	.inst	0x33323043 ; undefined
ffff4ff4:	32303136 	orr	w22, w9, #0x1fff0000
ffff4ff8:	31313137 	adds	w23, w9, #0xc4c
ffff4ffc:	56313030 	.inst	0x56313030 ; undefined
ffff5000:	00000000 	udf	#0
ffff5004:	00000000 	udf	#0
ffff5008:	00000000 	udf	#0
ffff500c:	00000000 	udf	#0
ffff5010:	00000000 	udf	#0
ffff5014:	00000000 	udf	#0
ffff5018:	00000000 	udf	#0
ffff501c:	00000000 	udf	#0
ffff5020:	00000000 	udf	#0
ffff5024:	00000000 	udf	#0
ffff5028:	00000000 	udf	#0
ffff502c:	00000000 	udf	#0
ffff5030:	00000000 	udf	#0
ffff5034:	00000000 	udf	#0
ffff5038:	00000000 	udf	#0
ffff503c:	00000000 	udf	#0
ffff5040:	00000000 	udf	#0
ffff5044:	00000000 	udf	#0
ffff5048:	00000000 	udf	#0
ffff504c:	00000000 	udf	#0
ffff5050:	00000000 	udf	#0
ffff5054:	00000000 	udf	#0
ffff5058:	00000000 	udf	#0
ffff505c:	00000000 	udf	#0
ffff5060:	00000000 	udf	#0
ffff5064:	00000000 	udf	#0
ffff5068:	00000000 	udf	#0
ffff506c:	00000000 	udf	#0
ffff5070:	00000000 	udf	#0
ffff5074:	00000000 	udf	#0
ffff5078:	00000000 	udf	#0
ffff507c:	00000000 	udf	#0
ffff5080:	00000000 	udf	#0
ffff5084:	00000000 	udf	#0
ffff5088:	00000000 	udf	#0
ffff508c:	00000000 	udf	#0
ffff5090:	00000000 	udf	#0
ffff5094:	00000000 	udf	#0
ffff5098:	00000000 	udf	#0
ffff509c:	00000000 	udf	#0
ffff50a0:	00000000 	udf	#0
ffff50a4:	00000000 	udf	#0
ffff50a8:	00000000 	udf	#0
ffff50ac:	00000000 	udf	#0
ffff50b0:	00000000 	udf	#0
ffff50b4:	00000000 	udf	#0
ffff50b8:	00000000 	udf	#0
ffff50bc:	00000000 	udf	#0
ffff50c0:	00000000 	udf	#0
ffff50c4:	00000000 	udf	#0
ffff50c8:	00000000 	udf	#0
ffff50cc:	00000000 	udf	#0
ffff50d0:	00000000 	udf	#0
ffff50d4:	00000000 	udf	#0
ffff50d8:	00000000 	udf	#0
ffff50dc:	00000000 	udf	#0
ffff50e0:	00000000 	udf	#0
ffff50e4:	00000000 	udf	#0
ffff50e8:	00000000 	udf	#0
ffff50ec:	00000000 	udf	#0
ffff50f0:	00000000 	udf	#0
ffff50f4:	00000000 	udf	#0
ffff50f8:	00000000 	udf	#0
ffff50fc:	00000000 	udf	#0
ffff5100:	00000000 	udf	#0
ffff5104:	00000000 	udf	#0
ffff5108:	00000000 	udf	#0
ffff510c:	00000000 	udf	#0
ffff5110:	00000000 	udf	#0
ffff5114:	00000000 	udf	#0
ffff5118:	00000000 	udf	#0
ffff511c:	00000000 	udf	#0
ffff5120:	00000000 	udf	#0
ffff5124:	00000000 	udf	#0
ffff5128:	00000000 	udf	#0
ffff512c:	00000000 	udf	#0
ffff5130:	00000000 	udf	#0
ffff5134:	00000000 	udf	#0
ffff5138:	00000000 	udf	#0
ffff513c:	00000000 	udf	#0
ffff5140:	00000000 	udf	#0
ffff5144:	00000000 	udf	#0
ffff5148:	00000000 	udf	#0
ffff514c:	00000000 	udf	#0
ffff5150:	00000000 	udf	#0
ffff5154:	00000000 	udf	#0
ffff5158:	00000000 	udf	#0
ffff515c:	00000000 	udf	#0
ffff5160:	00000000 	udf	#0
ffff5164:	00000000 	udf	#0
ffff5168:	00000000 	udf	#0
ffff516c:	00000000 	udf	#0
ffff5170:	00000000 	udf	#0
ffff5174:	00000000 	udf	#0
ffff5178:	00000000 	udf	#0
ffff517c:	00000000 	udf	#0
ffff5180:	00000000 	udf	#0
ffff5184:	00000000 	udf	#0
ffff5188:	00000000 	udf	#0
ffff518c:	00000000 	udf	#0
ffff5190:	00000000 	udf	#0
ffff5194:	00000000 	udf	#0
ffff5198:	00000000 	udf	#0
ffff519c:	00000000 	udf	#0
ffff51a0:	00000000 	udf	#0
ffff51a4:	00000000 	udf	#0
ffff51a8:	00000000 	udf	#0
ffff51ac:	00000000 	udf	#0
ffff51b0:	00000000 	udf	#0
ffff51b4:	00000000 	udf	#0
ffff51b8:	00000000 	udf	#0
ffff51bc:	00000000 	udf	#0
ffff51c0:	00000000 	udf	#0
ffff51c4:	00000000 	udf	#0
ffff51c8:	00000000 	udf	#0
ffff51cc:	00000000 	udf	#0
ffff51d0:	00000000 	udf	#0
ffff51d4:	00000000 	udf	#0
ffff51d8:	00000000 	udf	#0
ffff51dc:	00000000 	udf	#0
ffff51e0:	00000000 	udf	#0
ffff51e4:	00000000 	udf	#0
ffff51e8:	00000000 	udf	#0
ffff51ec:	00000000 	udf	#0
ffff51f0:	00000000 	udf	#0
ffff51f4:	00000000 	udf	#0
ffff51f8:	00000000 	udf	#0
ffff51fc:	00000000 	udf	#0
ffff5200:	00000000 	udf	#0
ffff5204:	00000000 	udf	#0
ffff5208:	00000000 	udf	#0
ffff520c:	00000000 	udf	#0
ffff5210:	00000000 	udf	#0
ffff5214:	00000000 	udf	#0
ffff5218:	00000000 	udf	#0
ffff521c:	00000000 	udf	#0
ffff5220:	00000000 	udf	#0
ffff5224:	00000000 	udf	#0
ffff5228:	00000000 	udf	#0
ffff522c:	00000000 	udf	#0
ffff5230:	00000000 	udf	#0
ffff5234:	00000000 	udf	#0
ffff5238:	00000000 	udf	#0
ffff523c:	00000000 	udf	#0
ffff5240:	00000000 	udf	#0
ffff5244:	00000000 	udf	#0
ffff5248:	00000000 	udf	#0
ffff524c:	00000000 	udf	#0
ffff5250:	00000000 	udf	#0
ffff5254:	00000000 	udf	#0
ffff5258:	00000000 	udf	#0
ffff525c:	00000000 	udf	#0
ffff5260:	00000000 	udf	#0
ffff5264:	00000000 	udf	#0
ffff5268:	00000000 	udf	#0
ffff526c:	00000000 	udf	#0
ffff5270:	00000000 	udf	#0
ffff5274:	00000000 	udf	#0
ffff5278:	00000000 	udf	#0
ffff527c:	00000000 	udf	#0
ffff5280:	00000000 	udf	#0
ffff5284:	00000000 	udf	#0
ffff5288:	00000000 	udf	#0
ffff528c:	00000000 	udf	#0
ffff5290:	00000000 	udf	#0
ffff5294:	00000000 	udf	#0
ffff5298:	00000000 	udf	#0
ffff529c:	00000000 	udf	#0
ffff52a0:	00000000 	udf	#0
ffff52a4:	00000000 	udf	#0
ffff52a8:	00000000 	udf	#0
ffff52ac:	00000000 	udf	#0
ffff52b0:	00000000 	udf	#0
ffff52b4:	00000000 	udf	#0
ffff52b8:	00000000 	udf	#0
ffff52bc:	00000000 	udf	#0
ffff52c0:	00000000 	udf	#0
ffff52c4:	00000000 	udf	#0
ffff52c8:	00000000 	udf	#0
ffff52cc:	00000000 	udf	#0
ffff52d0:	00000000 	udf	#0
ffff52d4:	00000000 	udf	#0
ffff52d8:	00000000 	udf	#0
ffff52dc:	00000000 	udf	#0
ffff52e0:	00000000 	udf	#0
ffff52e4:	00000000 	udf	#0
ffff52e8:	00000000 	udf	#0
ffff52ec:	00000000 	udf	#0
ffff52f0:	00000000 	udf	#0
ffff52f4:	00000000 	udf	#0
ffff52f8:	00000000 	udf	#0
ffff52fc:	00000000 	udf	#0
ffff5300:	00000000 	udf	#0
ffff5304:	00000000 	udf	#0
ffff5308:	00000000 	udf	#0
ffff530c:	00000000 	udf	#0
ffff5310:	00000000 	udf	#0
ffff5314:	00000000 	udf	#0
ffff5318:	00000000 	udf	#0
ffff531c:	00000000 	udf	#0
ffff5320:	00000000 	udf	#0
ffff5324:	00000000 	udf	#0
ffff5328:	00000000 	udf	#0
ffff532c:	00000000 	udf	#0
ffff5330:	00000000 	udf	#0
ffff5334:	00000000 	udf	#0
ffff5338:	00000000 	udf	#0
ffff533c:	00000000 	udf	#0
ffff5340:	00000000 	udf	#0
ffff5344:	00000000 	udf	#0
ffff5348:	00000000 	udf	#0
ffff534c:	00000000 	udf	#0
ffff5350:	00000000 	udf	#0
ffff5354:	00000000 	udf	#0
ffff5358:	00000000 	udf	#0
ffff535c:	00000000 	udf	#0
ffff5360:	00000000 	udf	#0
ffff5364:	00000000 	udf	#0
ffff5368:	00000000 	udf	#0
ffff536c:	00000000 	udf	#0
ffff5370:	00000000 	udf	#0
ffff5374:	00000000 	udf	#0
ffff5378:	00000000 	udf	#0
ffff537c:	00000000 	udf	#0
ffff5380:	00000000 	udf	#0
ffff5384:	00000000 	udf	#0
ffff5388:	00000000 	udf	#0
ffff538c:	00000000 	udf	#0
ffff5390:	00000000 	udf	#0
ffff5394:	00000000 	udf	#0
ffff5398:	00000000 	udf	#0
ffff539c:	00000000 	udf	#0
ffff53a0:	00000000 	udf	#0
ffff53a4:	00000000 	udf	#0
ffff53a8:	00000000 	udf	#0
ffff53ac:	00000000 	udf	#0
ffff53b0:	00000000 	udf	#0
ffff53b4:	00000000 	udf	#0
ffff53b8:	00000000 	udf	#0
ffff53bc:	00000000 	udf	#0
ffff53c0:	00000000 	udf	#0
ffff53c4:	00000000 	udf	#0
ffff53c8:	00000000 	udf	#0
ffff53cc:	00000000 	udf	#0
ffff53d0:	00000000 	udf	#0
ffff53d4:	00000000 	udf	#0
ffff53d8:	00000000 	udf	#0
ffff53dc:	00000000 	udf	#0
ffff53e0:	00000000 	udf	#0
ffff53e4:	00000000 	udf	#0
ffff53e8:	00000000 	udf	#0
ffff53ec:	00000000 	udf	#0
ffff53f0:	00000000 	udf	#0
ffff53f4:	00000000 	udf	#0
ffff53f8:	00000000 	udf	#0
ffff53fc:	00000000 	udf	#0
ffff5400:	00000000 	udf	#0
ffff5404:	00000000 	udf	#0
ffff5408:	00000000 	udf	#0
ffff540c:	00000000 	udf	#0
ffff5410:	00000000 	udf	#0
ffff5414:	00000000 	udf	#0
ffff5418:	00000000 	udf	#0
ffff541c:	00000000 	udf	#0
ffff5420:	00000000 	udf	#0
ffff5424:	00000000 	udf	#0
ffff5428:	00000000 	udf	#0
ffff542c:	00000000 	udf	#0
ffff5430:	00000000 	udf	#0
ffff5434:	00000000 	udf	#0
ffff5438:	00000000 	udf	#0
ffff543c:	00000000 	udf	#0
ffff5440:	00000000 	udf	#0
ffff5444:	00000000 	udf	#0
ffff5448:	00000000 	udf	#0
ffff544c:	00000000 	udf	#0
ffff5450:	00000000 	udf	#0
ffff5454:	00000000 	udf	#0
ffff5458:	00000000 	udf	#0
ffff545c:	00000000 	udf	#0
ffff5460:	00000000 	udf	#0
ffff5464:	00000000 	udf	#0
ffff5468:	00000000 	udf	#0
ffff546c:	00000000 	udf	#0
ffff5470:	00000000 	udf	#0
ffff5474:	00000000 	udf	#0
ffff5478:	00000000 	udf	#0
ffff547c:	00000000 	udf	#0
ffff5480:	00000000 	udf	#0
ffff5484:	00000000 	udf	#0
ffff5488:	00000000 	udf	#0
ffff548c:	00000000 	udf	#0
ffff5490:	00000000 	udf	#0
ffff5494:	00000000 	udf	#0
ffff5498:	00000000 	udf	#0
ffff549c:	00000000 	udf	#0
ffff54a0:	00000000 	udf	#0
ffff54a4:	00000000 	udf	#0
ffff54a8:	00000000 	udf	#0
ffff54ac:	00000000 	udf	#0
ffff54b0:	00000000 	udf	#0
ffff54b4:	00000000 	udf	#0
ffff54b8:	00000000 	udf	#0
ffff54bc:	00000000 	udf	#0
ffff54c0:	00000000 	udf	#0
ffff54c4:	00000000 	udf	#0
ffff54c8:	00000000 	udf	#0
ffff54cc:	00000000 	udf	#0
ffff54d0:	00000000 	udf	#0
ffff54d4:	00000000 	udf	#0
ffff54d8:	00000000 	udf	#0
ffff54dc:	00000000 	udf	#0
ffff54e0:	00000000 	udf	#0
ffff54e4:	00000000 	udf	#0
ffff54e8:	00000000 	udf	#0
ffff54ec:	00000000 	udf	#0
ffff54f0:	00000000 	udf	#0
ffff54f4:	00000000 	udf	#0
ffff54f8:	00000000 	udf	#0
ffff54fc:	00000000 	udf	#0
ffff5500:	00000000 	udf	#0
ffff5504:	00000000 	udf	#0
ffff5508:	00000000 	udf	#0
ffff550c:	00000000 	udf	#0
ffff5510:	00000000 	udf	#0
ffff5514:	00000000 	udf	#0
ffff5518:	00000000 	udf	#0
ffff551c:	00000000 	udf	#0
ffff5520:	00000000 	udf	#0
ffff5524:	00000000 	udf	#0
ffff5528:	00000000 	udf	#0
ffff552c:	00000000 	udf	#0
ffff5530:	00000000 	udf	#0
ffff5534:	00000000 	udf	#0
ffff5538:	00000000 	udf	#0
ffff553c:	00000000 	udf	#0
ffff5540:	00000000 	udf	#0
ffff5544:	00000000 	udf	#0
ffff5548:	00000000 	udf	#0
ffff554c:	00000000 	udf	#0
ffff5550:	00000000 	udf	#0
ffff5554:	00000000 	udf	#0
ffff5558:	00000000 	udf	#0
ffff555c:	00000000 	udf	#0
ffff5560:	00000000 	udf	#0
ffff5564:	00000000 	udf	#0
ffff5568:	00000000 	udf	#0
ffff556c:	00000000 	udf	#0
ffff5570:	00000000 	udf	#0
ffff5574:	00000000 	udf	#0
ffff5578:	00000000 	udf	#0
ffff557c:	00000000 	udf	#0
ffff5580:	00000000 	udf	#0
ffff5584:	00000000 	udf	#0
ffff5588:	00000000 	udf	#0
ffff558c:	00000000 	udf	#0
ffff5590:	00000000 	udf	#0
ffff5594:	00000000 	udf	#0
ffff5598:	00000000 	udf	#0
ffff559c:	00000000 	udf	#0
ffff55a0:	00000000 	udf	#0
ffff55a4:	00000000 	udf	#0
ffff55a8:	00000000 	udf	#0
ffff55ac:	00000000 	udf	#0
ffff55b0:	00000000 	udf	#0
ffff55b4:	00000000 	udf	#0
ffff55b8:	00000000 	udf	#0
ffff55bc:	00000000 	udf	#0
ffff55c0:	00000000 	udf	#0
ffff55c4:	00000000 	udf	#0
ffff55c8:	00000000 	udf	#0
ffff55cc:	00000000 	udf	#0
ffff55d0:	00000000 	udf	#0
ffff55d4:	00000000 	udf	#0
ffff55d8:	00000000 	udf	#0
ffff55dc:	00000000 	udf	#0
ffff55e0:	00000000 	udf	#0
ffff55e4:	00000000 	udf	#0
ffff55e8:	00000000 	udf	#0
ffff55ec:	00000000 	udf	#0
ffff55f0:	00000000 	udf	#0
ffff55f4:	00000000 	udf	#0
ffff55f8:	00000000 	udf	#0
ffff55fc:	00000000 	udf	#0
ffff5600:	00000000 	udf	#0
ffff5604:	00000000 	udf	#0
ffff5608:	00000000 	udf	#0
ffff560c:	00000000 	udf	#0
ffff5610:	00000000 	udf	#0
ffff5614:	00000000 	udf	#0
ffff5618:	00000000 	udf	#0
ffff561c:	00000000 	udf	#0
ffff5620:	00000000 	udf	#0
ffff5624:	00000000 	udf	#0
ffff5628:	00000000 	udf	#0
ffff562c:	00000000 	udf	#0
ffff5630:	00000000 	udf	#0
ffff5634:	00000000 	udf	#0
ffff5638:	00000000 	udf	#0
ffff563c:	00000000 	udf	#0
ffff5640:	00000000 	udf	#0
ffff5644:	00000000 	udf	#0
ffff5648:	00000000 	udf	#0
ffff564c:	00000000 	udf	#0
ffff5650:	00000000 	udf	#0
ffff5654:	00000000 	udf	#0
ffff5658:	00000000 	udf	#0
ffff565c:	00000000 	udf	#0
ffff5660:	00000000 	udf	#0
ffff5664:	00000000 	udf	#0
ffff5668:	00000000 	udf	#0
ffff566c:	00000000 	udf	#0
ffff5670:	00000000 	udf	#0
ffff5674:	00000000 	udf	#0
ffff5678:	00000000 	udf	#0
ffff567c:	00000000 	udf	#0
ffff5680:	00000000 	udf	#0
ffff5684:	00000000 	udf	#0
ffff5688:	00000000 	udf	#0
ffff568c:	00000000 	udf	#0
ffff5690:	00000000 	udf	#0
ffff5694:	00000000 	udf	#0
ffff5698:	00000000 	udf	#0
ffff569c:	00000000 	udf	#0
ffff56a0:	00000000 	udf	#0
ffff56a4:	00000000 	udf	#0
ffff56a8:	00000000 	udf	#0
ffff56ac:	00000000 	udf	#0
ffff56b0:	00000000 	udf	#0
ffff56b4:	00000000 	udf	#0
ffff56b8:	00000000 	udf	#0
ffff56bc:	00000000 	udf	#0
ffff56c0:	00000000 	udf	#0
ffff56c4:	00000000 	udf	#0
ffff56c8:	00000000 	udf	#0
ffff56cc:	00000000 	udf	#0
ffff56d0:	00000000 	udf	#0
ffff56d4:	00000000 	udf	#0
ffff56d8:	00000000 	udf	#0
ffff56dc:	00000000 	udf	#0
ffff56e0:	00000000 	udf	#0
ffff56e4:	00000000 	udf	#0
ffff56e8:	00000000 	udf	#0
ffff56ec:	00000000 	udf	#0
ffff56f0:	00000000 	udf	#0
ffff56f4:	00000000 	udf	#0
ffff56f8:	00000000 	udf	#0
ffff56fc:	00000000 	udf	#0
ffff5700:	00000000 	udf	#0
ffff5704:	00000000 	udf	#0
ffff5708:	00000000 	udf	#0
ffff570c:	00000000 	udf	#0
ffff5710:	00000000 	udf	#0
ffff5714:	00000000 	udf	#0
ffff5718:	00000000 	udf	#0
ffff571c:	00000000 	udf	#0
ffff5720:	00000000 	udf	#0
ffff5724:	00000000 	udf	#0
ffff5728:	00000000 	udf	#0
ffff572c:	00000000 	udf	#0
ffff5730:	00000000 	udf	#0
ffff5734:	00000000 	udf	#0
ffff5738:	00000000 	udf	#0
ffff573c:	00000000 	udf	#0
ffff5740:	00000000 	udf	#0
ffff5744:	00000000 	udf	#0
ffff5748:	00000000 	udf	#0
ffff574c:	00000000 	udf	#0
ffff5750:	00000000 	udf	#0
ffff5754:	00000000 	udf	#0
ffff5758:	00000000 	udf	#0
ffff575c:	00000000 	udf	#0
ffff5760:	00000000 	udf	#0
ffff5764:	00000000 	udf	#0
ffff5768:	00000000 	udf	#0
ffff576c:	00000000 	udf	#0
ffff5770:	00000000 	udf	#0
ffff5774:	00000000 	udf	#0
ffff5778:	00000000 	udf	#0
ffff577c:	00000000 	udf	#0
ffff5780:	00000000 	udf	#0
ffff5784:	00000000 	udf	#0
ffff5788:	00000000 	udf	#0
ffff578c:	00000000 	udf	#0
ffff5790:	00000000 	udf	#0
ffff5794:	00000000 	udf	#0
ffff5798:	00000000 	udf	#0
ffff579c:	00000000 	udf	#0
ffff57a0:	00000000 	udf	#0
ffff57a4:	00000000 	udf	#0
ffff57a8:	00000000 	udf	#0
ffff57ac:	00000000 	udf	#0
ffff57b0:	00000000 	udf	#0
ffff57b4:	00000000 	udf	#0
ffff57b8:	00000000 	udf	#0
ffff57bc:	00000000 	udf	#0
ffff57c0:	00000000 	udf	#0
ffff57c4:	00000000 	udf	#0
ffff57c8:	00000000 	udf	#0
ffff57cc:	00000000 	udf	#0
ffff57d0:	00000000 	udf	#0
ffff57d4:	00000000 	udf	#0
ffff57d8:	00000000 	udf	#0
ffff57dc:	00000000 	udf	#0
ffff57e0:	00000000 	udf	#0
ffff57e4:	00000000 	udf	#0
ffff57e8:	00000000 	udf	#0
ffff57ec:	00000000 	udf	#0
ffff57f0:	00000000 	udf	#0
ffff57f4:	00000000 	udf	#0
ffff57f8:	00000000 	udf	#0
ffff57fc:	00000000 	udf	#0
ffff5800:	00000000 	udf	#0
ffff5804:	00000000 	udf	#0
ffff5808:	00000000 	udf	#0
ffff580c:	00000000 	udf	#0
ffff5810:	00000000 	udf	#0
ffff5814:	00000000 	udf	#0
ffff5818:	00000000 	udf	#0
ffff581c:	00000000 	udf	#0
ffff5820:	00000000 	udf	#0
ffff5824:	00000000 	udf	#0
ffff5828:	00000000 	udf	#0
ffff582c:	00000000 	udf	#0
ffff5830:	00000000 	udf	#0
ffff5834:	00000000 	udf	#0
ffff5838:	00000000 	udf	#0
ffff583c:	00000000 	udf	#0
ffff5840:	00000000 	udf	#0
ffff5844:	00000000 	udf	#0
ffff5848:	00000000 	udf	#0
ffff584c:	00000000 	udf	#0
ffff5850:	00000000 	udf	#0
ffff5854:	00000000 	udf	#0
ffff5858:	00000000 	udf	#0
ffff585c:	00000000 	udf	#0
ffff5860:	00000000 	udf	#0
ffff5864:	00000000 	udf	#0
ffff5868:	00000000 	udf	#0
ffff586c:	00000000 	udf	#0
ffff5870:	00000000 	udf	#0
ffff5874:	00000000 	udf	#0
ffff5878:	00000000 	udf	#0
ffff587c:	00000000 	udf	#0
ffff5880:	00000000 	udf	#0
ffff5884:	00000000 	udf	#0
ffff5888:	00000000 	udf	#0
ffff588c:	00000000 	udf	#0
ffff5890:	00000000 	udf	#0
ffff5894:	00000000 	udf	#0
ffff5898:	00000000 	udf	#0
ffff589c:	00000000 	udf	#0
ffff58a0:	00000000 	udf	#0
ffff58a4:	00000000 	udf	#0
ffff58a8:	00000000 	udf	#0
ffff58ac:	00000000 	udf	#0
ffff58b0:	00000000 	udf	#0
ffff58b4:	00000000 	udf	#0
ffff58b8:	00000000 	udf	#0
ffff58bc:	00000000 	udf	#0
ffff58c0:	00000000 	udf	#0
ffff58c4:	00000000 	udf	#0
ffff58c8:	00000000 	udf	#0
ffff58cc:	00000000 	udf	#0
ffff58d0:	00000000 	udf	#0
ffff58d4:	00000000 	udf	#0
ffff58d8:	00000000 	udf	#0
ffff58dc:	00000000 	udf	#0
ffff58e0:	00000000 	udf	#0
ffff58e4:	00000000 	udf	#0
ffff58e8:	00000000 	udf	#0
ffff58ec:	00000000 	udf	#0
ffff58f0:	00000000 	udf	#0
ffff58f4:	00000000 	udf	#0
ffff58f8:	00000000 	udf	#0
ffff58fc:	00000000 	udf	#0
ffff5900:	00000000 	udf	#0
ffff5904:	00000000 	udf	#0
ffff5908:	00000000 	udf	#0
ffff590c:	00000000 	udf	#0
ffff5910:	00000000 	udf	#0
ffff5914:	00000000 	udf	#0
ffff5918:	00000000 	udf	#0
ffff591c:	00000000 	udf	#0
ffff5920:	00000000 	udf	#0
ffff5924:	00000000 	udf	#0
ffff5928:	00000000 	udf	#0
ffff592c:	00000000 	udf	#0
ffff5930:	00000000 	udf	#0
ffff5934:	00000000 	udf	#0
ffff5938:	00000000 	udf	#0
ffff593c:	00000000 	udf	#0
ffff5940:	00000000 	udf	#0
ffff5944:	00000000 	udf	#0
ffff5948:	00000000 	udf	#0
ffff594c:	00000000 	udf	#0
ffff5950:	00000000 	udf	#0
ffff5954:	00000000 	udf	#0
ffff5958:	00000000 	udf	#0
ffff595c:	00000000 	udf	#0
ffff5960:	00000000 	udf	#0
ffff5964:	00000000 	udf	#0
ffff5968:	00000000 	udf	#0
ffff596c:	00000000 	udf	#0
ffff5970:	00000000 	udf	#0
ffff5974:	00000000 	udf	#0
ffff5978:	00000000 	udf	#0
ffff597c:	00000000 	udf	#0
ffff5980:	00000000 	udf	#0
ffff5984:	00000000 	udf	#0
ffff5988:	00000000 	udf	#0
ffff598c:	00000000 	udf	#0
ffff5990:	00000000 	udf	#0
ffff5994:	00000000 	udf	#0
ffff5998:	00000000 	udf	#0
ffff599c:	00000000 	udf	#0
ffff59a0:	00000000 	udf	#0
ffff59a4:	00000000 	udf	#0
ffff59a8:	00000000 	udf	#0
ffff59ac:	00000000 	udf	#0
ffff59b0:	00000000 	udf	#0
ffff59b4:	00000000 	udf	#0
ffff59b8:	00000000 	udf	#0
ffff59bc:	00000000 	udf	#0
ffff59c0:	00000000 	udf	#0
ffff59c4:	00000000 	udf	#0
ffff59c8:	00000000 	udf	#0
ffff59cc:	00000000 	udf	#0
ffff59d0:	00000000 	udf	#0
ffff59d4:	00000000 	udf	#0
ffff59d8:	00000000 	udf	#0
ffff59dc:	00000000 	udf	#0
ffff59e0:	00000000 	udf	#0
ffff59e4:	00000000 	udf	#0
ffff59e8:	00000000 	udf	#0
ffff59ec:	00000000 	udf	#0
ffff59f0:	00000000 	udf	#0
ffff59f4:	00000000 	udf	#0
ffff59f8:	00000000 	udf	#0
ffff59fc:	00000000 	udf	#0
ffff5a00:	00000000 	udf	#0
ffff5a04:	00000000 	udf	#0
ffff5a08:	00000000 	udf	#0
ffff5a0c:	00000000 	udf	#0
ffff5a10:	00000000 	udf	#0
ffff5a14:	00000000 	udf	#0
ffff5a18:	00000000 	udf	#0
ffff5a1c:	00000000 	udf	#0
ffff5a20:	00000000 	udf	#0
ffff5a24:	00000000 	udf	#0
ffff5a28:	00000000 	udf	#0
ffff5a2c:	00000000 	udf	#0
ffff5a30:	00000000 	udf	#0
ffff5a34:	00000000 	udf	#0
ffff5a38:	00000000 	udf	#0
ffff5a3c:	00000000 	udf	#0
ffff5a40:	00000000 	udf	#0
ffff5a44:	00000000 	udf	#0
ffff5a48:	00000000 	udf	#0
ffff5a4c:	00000000 	udf	#0
ffff5a50:	00000000 	udf	#0
ffff5a54:	00000000 	udf	#0
ffff5a58:	00000000 	udf	#0
ffff5a5c:	00000000 	udf	#0
ffff5a60:	00000000 	udf	#0
ffff5a64:	00000000 	udf	#0
ffff5a68:	00000000 	udf	#0
ffff5a6c:	00000000 	udf	#0
ffff5a70:	00000000 	udf	#0
ffff5a74:	00000000 	udf	#0
ffff5a78:	00000000 	udf	#0
ffff5a7c:	00000000 	udf	#0
ffff5a80:	00000000 	udf	#0
ffff5a84:	00000000 	udf	#0
ffff5a88:	00000000 	udf	#0
ffff5a8c:	00000000 	udf	#0
ffff5a90:	00000000 	udf	#0
ffff5a94:	00000000 	udf	#0
ffff5a98:	00000000 	udf	#0
ffff5a9c:	00000000 	udf	#0
ffff5aa0:	00000000 	udf	#0
ffff5aa4:	00000000 	udf	#0
ffff5aa8:	00000000 	udf	#0
ffff5aac:	00000000 	udf	#0
ffff5ab0:	00000000 	udf	#0
ffff5ab4:	00000000 	udf	#0
ffff5ab8:	00000000 	udf	#0
ffff5abc:	00000000 	udf	#0
ffff5ac0:	00000000 	udf	#0
ffff5ac4:	00000000 	udf	#0
ffff5ac8:	00000000 	udf	#0
ffff5acc:	00000000 	udf	#0
ffff5ad0:	00000000 	udf	#0
ffff5ad4:	00000000 	udf	#0
ffff5ad8:	00000000 	udf	#0
ffff5adc:	00000000 	udf	#0
ffff5ae0:	00000000 	udf	#0
ffff5ae4:	00000000 	udf	#0
ffff5ae8:	00000000 	udf	#0
ffff5aec:	00000000 	udf	#0
ffff5af0:	00000000 	udf	#0
ffff5af4:	00000000 	udf	#0
ffff5af8:	00000000 	udf	#0
ffff5afc:	00000000 	udf	#0
ffff5b00:	00000000 	udf	#0
ffff5b04:	00000000 	udf	#0
ffff5b08:	00000000 	udf	#0
ffff5b0c:	00000000 	udf	#0
ffff5b10:	00000000 	udf	#0
ffff5b14:	00000000 	udf	#0
ffff5b18:	00000000 	udf	#0
ffff5b1c:	00000000 	udf	#0
ffff5b20:	00000000 	udf	#0
ffff5b24:	00000000 	udf	#0
ffff5b28:	00000000 	udf	#0
ffff5b2c:	00000000 	udf	#0
ffff5b30:	00000000 	udf	#0
ffff5b34:	00000000 	udf	#0
ffff5b38:	00000000 	udf	#0
ffff5b3c:	00000000 	udf	#0
ffff5b40:	00000000 	udf	#0
ffff5b44:	00000000 	udf	#0
ffff5b48:	00000000 	udf	#0
ffff5b4c:	00000000 	udf	#0
ffff5b50:	00000000 	udf	#0
ffff5b54:	00000000 	udf	#0
ffff5b58:	00000000 	udf	#0
ffff5b5c:	00000000 	udf	#0
ffff5b60:	00000000 	udf	#0
ffff5b64:	00000000 	udf	#0
ffff5b68:	00000000 	udf	#0
ffff5b6c:	00000000 	udf	#0
ffff5b70:	00000000 	udf	#0
ffff5b74:	00000000 	udf	#0
ffff5b78:	00000000 	udf	#0
ffff5b7c:	00000000 	udf	#0
ffff5b80:	00000000 	udf	#0
ffff5b84:	00000000 	udf	#0
ffff5b88:	00000000 	udf	#0
ffff5b8c:	00000000 	udf	#0
ffff5b90:	00000000 	udf	#0
ffff5b94:	00000000 	udf	#0
ffff5b98:	00000000 	udf	#0
ffff5b9c:	00000000 	udf	#0
ffff5ba0:	00000000 	udf	#0
ffff5ba4:	00000000 	udf	#0
ffff5ba8:	00000000 	udf	#0
ffff5bac:	00000000 	udf	#0
ffff5bb0:	00000000 	udf	#0
ffff5bb4:	00000000 	udf	#0
ffff5bb8:	00000000 	udf	#0
ffff5bbc:	00000000 	udf	#0
ffff5bc0:	00000000 	udf	#0
ffff5bc4:	00000000 	udf	#0
ffff5bc8:	00000000 	udf	#0
ffff5bcc:	00000000 	udf	#0
ffff5bd0:	00000000 	udf	#0
ffff5bd4:	00000000 	udf	#0
ffff5bd8:	00000000 	udf	#0
ffff5bdc:	00000000 	udf	#0
ffff5be0:	00000000 	udf	#0
ffff5be4:	00000000 	udf	#0
ffff5be8:	00000000 	udf	#0
ffff5bec:	00000000 	udf	#0
ffff5bf0:	00000000 	udf	#0
ffff5bf4:	00000000 	udf	#0
ffff5bf8:	00000000 	udf	#0
ffff5bfc:	00000000 	udf	#0
ffff5c00:	00000000 	udf	#0
ffff5c04:	00000000 	udf	#0
ffff5c08:	00000000 	udf	#0
ffff5c0c:	00000000 	udf	#0
ffff5c10:	00000000 	udf	#0
ffff5c14:	00000000 	udf	#0
ffff5c18:	00000000 	udf	#0
ffff5c1c:	00000000 	udf	#0
ffff5c20:	00000000 	udf	#0
ffff5c24:	00000000 	udf	#0
ffff5c28:	00000000 	udf	#0
ffff5c2c:	00000000 	udf	#0
ffff5c30:	00000000 	udf	#0
ffff5c34:	00000000 	udf	#0
ffff5c38:	00000000 	udf	#0
ffff5c3c:	00000000 	udf	#0
ffff5c40:	00000000 	udf	#0
ffff5c44:	00000000 	udf	#0
ffff5c48:	00000000 	udf	#0
ffff5c4c:	00000000 	udf	#0
ffff5c50:	00000000 	udf	#0
ffff5c54:	00000000 	udf	#0
ffff5c58:	00000000 	udf	#0
ffff5c5c:	00000000 	udf	#0
ffff5c60:	00000000 	udf	#0
ffff5c64:	00000000 	udf	#0
ffff5c68:	00000000 	udf	#0
ffff5c6c:	00000000 	udf	#0
ffff5c70:	00000000 	udf	#0
ffff5c74:	00000000 	udf	#0
ffff5c78:	00000000 	udf	#0
ffff5c7c:	00000000 	udf	#0
ffff5c80:	00000000 	udf	#0
ffff5c84:	00000000 	udf	#0
ffff5c88:	00000000 	udf	#0
ffff5c8c:	00000000 	udf	#0
ffff5c90:	00000000 	udf	#0
ffff5c94:	00000000 	udf	#0
ffff5c98:	00000000 	udf	#0
ffff5c9c:	00000000 	udf	#0
ffff5ca0:	00000000 	udf	#0
ffff5ca4:	00000000 	udf	#0
ffff5ca8:	00000000 	udf	#0
ffff5cac:	00000000 	udf	#0
ffff5cb0:	00000000 	udf	#0
ffff5cb4:	00000000 	udf	#0
ffff5cb8:	00000000 	udf	#0
ffff5cbc:	00000000 	udf	#0
ffff5cc0:	00000000 	udf	#0
ffff5cc4:	00000000 	udf	#0
ffff5cc8:	00000000 	udf	#0
ffff5ccc:	00000000 	udf	#0
ffff5cd0:	00000000 	udf	#0
ffff5cd4:	00000000 	udf	#0
ffff5cd8:	00000000 	udf	#0
ffff5cdc:	00000000 	udf	#0
ffff5ce0:	00000000 	udf	#0
ffff5ce4:	00000000 	udf	#0
ffff5ce8:	00000000 	udf	#0
ffff5cec:	00000000 	udf	#0
ffff5cf0:	00000000 	udf	#0
ffff5cf4:	00000000 	udf	#0
ffff5cf8:	00000000 	udf	#0
ffff5cfc:	00000000 	udf	#0
ffff5d00:	00000000 	udf	#0
ffff5d04:	00000000 	udf	#0
ffff5d08:	00000000 	udf	#0
ffff5d0c:	00000000 	udf	#0
ffff5d10:	00000000 	udf	#0
ffff5d14:	00000000 	udf	#0
ffff5d18:	00000000 	udf	#0
ffff5d1c:	00000000 	udf	#0
ffff5d20:	00000000 	udf	#0
ffff5d24:	00000000 	udf	#0
ffff5d28:	00000000 	udf	#0
ffff5d2c:	00000000 	udf	#0
ffff5d30:	00000000 	udf	#0
ffff5d34:	00000000 	udf	#0
ffff5d38:	00000000 	udf	#0
ffff5d3c:	00000000 	udf	#0
ffff5d40:	00000000 	udf	#0
ffff5d44:	00000000 	udf	#0
ffff5d48:	00000000 	udf	#0
ffff5d4c:	00000000 	udf	#0
ffff5d50:	00000000 	udf	#0
ffff5d54:	00000000 	udf	#0
ffff5d58:	00000000 	udf	#0
ffff5d5c:	00000000 	udf	#0
ffff5d60:	00000000 	udf	#0
ffff5d64:	00000000 	udf	#0
ffff5d68:	00000000 	udf	#0
ffff5d6c:	00000000 	udf	#0
ffff5d70:	00000000 	udf	#0
ffff5d74:	00000000 	udf	#0
ffff5d78:	00000000 	udf	#0
ffff5d7c:	00000000 	udf	#0
ffff5d80:	00000000 	udf	#0
ffff5d84:	00000000 	udf	#0
ffff5d88:	00000000 	udf	#0
ffff5d8c:	00000000 	udf	#0
ffff5d90:	00000000 	udf	#0
ffff5d94:	00000000 	udf	#0
ffff5d98:	00000000 	udf	#0
ffff5d9c:	00000000 	udf	#0
ffff5da0:	00000000 	udf	#0
ffff5da4:	00000000 	udf	#0
ffff5da8:	00000000 	udf	#0
ffff5dac:	00000000 	udf	#0
ffff5db0:	00000000 	udf	#0
ffff5db4:	00000000 	udf	#0
ffff5db8:	00000000 	udf	#0
ffff5dbc:	00000000 	udf	#0
ffff5dc0:	00000000 	udf	#0
ffff5dc4:	00000000 	udf	#0
ffff5dc8:	00000000 	udf	#0
ffff5dcc:	00000000 	udf	#0
ffff5dd0:	00000000 	udf	#0
ffff5dd4:	00000000 	udf	#0
ffff5dd8:	00000000 	udf	#0
ffff5ddc:	00000000 	udf	#0
ffff5de0:	00000000 	udf	#0
ffff5de4:	00000000 	udf	#0
ffff5de8:	00000000 	udf	#0
ffff5dec:	00000000 	udf	#0
ffff5df0:	00000000 	udf	#0
ffff5df4:	00000000 	udf	#0
ffff5df8:	00000000 	udf	#0
ffff5dfc:	00000000 	udf	#0
ffff5e00:	00000000 	udf	#0
ffff5e04:	00000000 	udf	#0
ffff5e08:	00000000 	udf	#0
ffff5e0c:	00000000 	udf	#0
ffff5e10:	00000000 	udf	#0
ffff5e14:	00000000 	udf	#0
ffff5e18:	00000000 	udf	#0
ffff5e1c:	00000000 	udf	#0
ffff5e20:	00000000 	udf	#0
ffff5e24:	00000000 	udf	#0
ffff5e28:	00000000 	udf	#0
ffff5e2c:	00000000 	udf	#0
ffff5e30:	00000000 	udf	#0
ffff5e34:	00000000 	udf	#0
ffff5e38:	00000000 	udf	#0
ffff5e3c:	00000000 	udf	#0
ffff5e40:	00000000 	udf	#0
ffff5e44:	00000000 	udf	#0
ffff5e48:	00000000 	udf	#0
ffff5e4c:	00000000 	udf	#0
ffff5e50:	00000000 	udf	#0
ffff5e54:	00000000 	udf	#0
ffff5e58:	00000000 	udf	#0
ffff5e5c:	00000000 	udf	#0
ffff5e60:	00000000 	udf	#0
ffff5e64:	00000000 	udf	#0
ffff5e68:	00000000 	udf	#0
ffff5e6c:	00000000 	udf	#0
ffff5e70:	00000000 	udf	#0
ffff5e74:	00000000 	udf	#0
ffff5e78:	00000000 	udf	#0
ffff5e7c:	00000000 	udf	#0
ffff5e80:	00000000 	udf	#0
ffff5e84:	00000000 	udf	#0
ffff5e88:	00000000 	udf	#0
ffff5e8c:	00000000 	udf	#0
ffff5e90:	00000000 	udf	#0
ffff5e94:	00000000 	udf	#0
ffff5e98:	00000000 	udf	#0
ffff5e9c:	00000000 	udf	#0
ffff5ea0:	00000000 	udf	#0
ffff5ea4:	00000000 	udf	#0
ffff5ea8:	00000000 	udf	#0
ffff5eac:	00000000 	udf	#0
ffff5eb0:	00000000 	udf	#0
ffff5eb4:	00000000 	udf	#0
ffff5eb8:	00000000 	udf	#0
ffff5ebc:	00000000 	udf	#0
ffff5ec0:	00000000 	udf	#0
ffff5ec4:	00000000 	udf	#0
ffff5ec8:	00000000 	udf	#0
ffff5ecc:	00000000 	udf	#0
ffff5ed0:	00000000 	udf	#0
ffff5ed4:	00000000 	udf	#0
ffff5ed8:	00000000 	udf	#0
ffff5edc:	00000000 	udf	#0
ffff5ee0:	00000000 	udf	#0
ffff5ee4:	00000000 	udf	#0
ffff5ee8:	00000000 	udf	#0
ffff5eec:	00000000 	udf	#0
ffff5ef0:	00000000 	udf	#0
ffff5ef4:	00000000 	udf	#0
ffff5ef8:	00000000 	udf	#0
ffff5efc:	00000000 	udf	#0
ffff5f00:	00000000 	udf	#0
ffff5f04:	00000000 	udf	#0
ffff5f08:	00000000 	udf	#0
ffff5f0c:	00000000 	udf	#0
ffff5f10:	00000000 	udf	#0
ffff5f14:	00000000 	udf	#0
ffff5f18:	00000000 	udf	#0
ffff5f1c:	00000000 	udf	#0
ffff5f20:	00000000 	udf	#0
ffff5f24:	00000000 	udf	#0
ffff5f28:	00000000 	udf	#0
ffff5f2c:	00000000 	udf	#0
ffff5f30:	00000000 	udf	#0
ffff5f34:	00000000 	udf	#0
ffff5f38:	00000000 	udf	#0
ffff5f3c:	00000000 	udf	#0
ffff5f40:	00000000 	udf	#0
ffff5f44:	00000000 	udf	#0
ffff5f48:	00000000 	udf	#0
ffff5f4c:	00000000 	udf	#0
ffff5f50:	00000000 	udf	#0
ffff5f54:	00000000 	udf	#0
ffff5f58:	00000000 	udf	#0
ffff5f5c:	00000000 	udf	#0
ffff5f60:	00000000 	udf	#0
ffff5f64:	00000000 	udf	#0
ffff5f68:	00000000 	udf	#0
ffff5f6c:	00000000 	udf	#0
ffff5f70:	00000000 	udf	#0
ffff5f74:	00000000 	udf	#0
ffff5f78:	00000000 	udf	#0
ffff5f7c:	00000000 	udf	#0
ffff5f80:	00000000 	udf	#0
ffff5f84:	00000000 	udf	#0
ffff5f88:	00000000 	udf	#0
ffff5f8c:	00000000 	udf	#0
ffff5f90:	00000000 	udf	#0
ffff5f94:	00000000 	udf	#0
ffff5f98:	00000000 	udf	#0
ffff5f9c:	00000000 	udf	#0
ffff5fa0:	00000000 	udf	#0
ffff5fa4:	00000000 	udf	#0
ffff5fa8:	00000000 	udf	#0
ffff5fac:	00000000 	udf	#0
ffff5fb0:	00000000 	udf	#0
ffff5fb4:	00000000 	udf	#0
ffff5fb8:	00000000 	udf	#0
ffff5fbc:	00000000 	udf	#0
ffff5fc0:	00000000 	udf	#0
ffff5fc4:	00000000 	udf	#0
ffff5fc8:	00000000 	udf	#0
ffff5fcc:	00000000 	udf	#0
ffff5fd0:	00000000 	udf	#0
ffff5fd4:	00000000 	udf	#0
ffff5fd8:	00000000 	udf	#0
ffff5fdc:	00000000 	udf	#0
ffff5fe0:	00000000 	udf	#0
ffff5fe4:	00000000 	udf	#0
ffff5fe8:	00000000 	udf	#0
ffff5fec:	00000000 	udf	#0
ffff5ff0:	00000000 	udf	#0
ffff5ff4:	00000000 	udf	#0
ffff5ff8:	00000000 	udf	#0
ffff5ffc:	00000000 	udf	#0
ffff6000:	00000000 	udf	#0
ffff6004:	00000000 	udf	#0
ffff6008:	00000000 	udf	#0
ffff600c:	00000000 	udf	#0
ffff6010:	00000000 	udf	#0
ffff6014:	00000000 	udf	#0
ffff6018:	00000000 	udf	#0
ffff601c:	00000000 	udf	#0
ffff6020:	00000000 	udf	#0
ffff6024:	00000000 	udf	#0
ffff6028:	00000000 	udf	#0
ffff602c:	00000000 	udf	#0
ffff6030:	00000000 	udf	#0
ffff6034:	00000000 	udf	#0
ffff6038:	00000000 	udf	#0
ffff603c:	00000000 	udf	#0
ffff6040:	00000000 	udf	#0
ffff6044:	00000000 	udf	#0
ffff6048:	00000000 	udf	#0
ffff604c:	00000000 	udf	#0
ffff6050:	00000000 	udf	#0
ffff6054:	00000000 	udf	#0
ffff6058:	00000000 	udf	#0
ffff605c:	00000000 	udf	#0
ffff6060:	00000000 	udf	#0
ffff6064:	00000000 	udf	#0
ffff6068:	00000000 	udf	#0
ffff606c:	00000000 	udf	#0
ffff6070:	00000000 	udf	#0
ffff6074:	00000000 	udf	#0
ffff6078:	00000000 	udf	#0
ffff607c:	00000000 	udf	#0
ffff6080:	00000000 	udf	#0
ffff6084:	00000000 	udf	#0
ffff6088:	00000000 	udf	#0
ffff608c:	00000000 	udf	#0
ffff6090:	00000000 	udf	#0
ffff6094:	00000000 	udf	#0
ffff6098:	00000000 	udf	#0
ffff609c:	00000000 	udf	#0
ffff60a0:	00000000 	udf	#0
ffff60a4:	00000000 	udf	#0
ffff60a8:	00000000 	udf	#0
ffff60ac:	00000000 	udf	#0
ffff60b0:	00000000 	udf	#0
ffff60b4:	00000000 	udf	#0
ffff60b8:	00000000 	udf	#0
ffff60bc:	00000000 	udf	#0
ffff60c0:	00000000 	udf	#0
ffff60c4:	00000000 	udf	#0
ffff60c8:	00000000 	udf	#0
ffff60cc:	00000000 	udf	#0
ffff60d0:	00000000 	udf	#0
ffff60d4:	00000000 	udf	#0
ffff60d8:	00000000 	udf	#0
ffff60dc:	00000000 	udf	#0
ffff60e0:	00000000 	udf	#0
ffff60e4:	00000000 	udf	#0
ffff60e8:	00000000 	udf	#0
ffff60ec:	00000000 	udf	#0
ffff60f0:	00000000 	udf	#0
ffff60f4:	00000000 	udf	#0
ffff60f8:	00000000 	udf	#0
ffff60fc:	00000000 	udf	#0
ffff6100:	00000000 	udf	#0
ffff6104:	00000000 	udf	#0
ffff6108:	00000000 	udf	#0
ffff610c:	00000000 	udf	#0
ffff6110:	00000000 	udf	#0
ffff6114:	00000000 	udf	#0
ffff6118:	00000000 	udf	#0
ffff611c:	00000000 	udf	#0
ffff6120:	00000000 	udf	#0
ffff6124:	00000000 	udf	#0
ffff6128:	00000000 	udf	#0
ffff612c:	00000000 	udf	#0
ffff6130:	00000000 	udf	#0
ffff6134:	00000000 	udf	#0
ffff6138:	00000000 	udf	#0
ffff613c:	00000000 	udf	#0
ffff6140:	00000000 	udf	#0
ffff6144:	00000000 	udf	#0
ffff6148:	00000000 	udf	#0
ffff614c:	00000000 	udf	#0
ffff6150:	00000000 	udf	#0
ffff6154:	00000000 	udf	#0
ffff6158:	00000000 	udf	#0
ffff615c:	00000000 	udf	#0
ffff6160:	00000000 	udf	#0
ffff6164:	00000000 	udf	#0
ffff6168:	00000000 	udf	#0
ffff616c:	00000000 	udf	#0
ffff6170:	00000000 	udf	#0
ffff6174:	00000000 	udf	#0
ffff6178:	00000000 	udf	#0
ffff617c:	00000000 	udf	#0
ffff6180:	00000000 	udf	#0
ffff6184:	00000000 	udf	#0
ffff6188:	00000000 	udf	#0
ffff618c:	00000000 	udf	#0
ffff6190:	00000000 	udf	#0
ffff6194:	00000000 	udf	#0
ffff6198:	00000000 	udf	#0
ffff619c:	00000000 	udf	#0
ffff61a0:	00000000 	udf	#0
ffff61a4:	00000000 	udf	#0
ffff61a8:	00000000 	udf	#0
ffff61ac:	00000000 	udf	#0
ffff61b0:	00000000 	udf	#0
ffff61b4:	00000000 	udf	#0
ffff61b8:	00000000 	udf	#0
ffff61bc:	00000000 	udf	#0
ffff61c0:	00000000 	udf	#0
ffff61c4:	00000000 	udf	#0
ffff61c8:	00000000 	udf	#0
ffff61cc:	00000000 	udf	#0
ffff61d0:	00000000 	udf	#0
ffff61d4:	00000000 	udf	#0
ffff61d8:	00000000 	udf	#0
ffff61dc:	00000000 	udf	#0
ffff61e0:	00000000 	udf	#0
ffff61e4:	00000000 	udf	#0
ffff61e8:	00000000 	udf	#0
ffff61ec:	00000000 	udf	#0
ffff61f0:	00000000 	udf	#0
ffff61f4:	00000000 	udf	#0
ffff61f8:	00000000 	udf	#0
ffff61fc:	00000000 	udf	#0
ffff6200:	00000000 	udf	#0
ffff6204:	00000000 	udf	#0
ffff6208:	00000000 	udf	#0
ffff620c:	00000000 	udf	#0
ffff6210:	00000000 	udf	#0
ffff6214:	00000000 	udf	#0
ffff6218:	00000000 	udf	#0
ffff621c:	00000000 	udf	#0
ffff6220:	00000000 	udf	#0
ffff6224:	00000000 	udf	#0
ffff6228:	00000000 	udf	#0
ffff622c:	00000000 	udf	#0
ffff6230:	00000000 	udf	#0
ffff6234:	00000000 	udf	#0
ffff6238:	00000000 	udf	#0
ffff623c:	00000000 	udf	#0
ffff6240:	00000000 	udf	#0
ffff6244:	00000000 	udf	#0
ffff6248:	00000000 	udf	#0
ffff624c:	00000000 	udf	#0
ffff6250:	00000000 	udf	#0
ffff6254:	00000000 	udf	#0
ffff6258:	00000000 	udf	#0
ffff625c:	00000000 	udf	#0
ffff6260:	00000000 	udf	#0
ffff6264:	00000000 	udf	#0
ffff6268:	00000000 	udf	#0
ffff626c:	00000000 	udf	#0
ffff6270:	00000000 	udf	#0
ffff6274:	00000000 	udf	#0
ffff6278:	00000000 	udf	#0
ffff627c:	00000000 	udf	#0
ffff6280:	00000000 	udf	#0
ffff6284:	00000000 	udf	#0
ffff6288:	00000000 	udf	#0
ffff628c:	00000000 	udf	#0
ffff6290:	00000000 	udf	#0
ffff6294:	00000000 	udf	#0
ffff6298:	00000000 	udf	#0
ffff629c:	00000000 	udf	#0
ffff62a0:	00000000 	udf	#0
ffff62a4:	00000000 	udf	#0
ffff62a8:	00000000 	udf	#0
ffff62ac:	00000000 	udf	#0
ffff62b0:	00000000 	udf	#0
ffff62b4:	00000000 	udf	#0
ffff62b8:	00000000 	udf	#0
ffff62bc:	00000000 	udf	#0
ffff62c0:	00000000 	udf	#0
ffff62c4:	00000000 	udf	#0
ffff62c8:	00000000 	udf	#0
ffff62cc:	00000000 	udf	#0
ffff62d0:	00000000 	udf	#0
ffff62d4:	00000000 	udf	#0
ffff62d8:	00000000 	udf	#0
ffff62dc:	00000000 	udf	#0
ffff62e0:	00000000 	udf	#0
ffff62e4:	00000000 	udf	#0
ffff62e8:	00000000 	udf	#0
ffff62ec:	00000000 	udf	#0
ffff62f0:	00000000 	udf	#0
ffff62f4:	00000000 	udf	#0
ffff62f8:	00000000 	udf	#0
ffff62fc:	00000000 	udf	#0
ffff6300:	00000000 	udf	#0
ffff6304:	00000000 	udf	#0
ffff6308:	00000000 	udf	#0
ffff630c:	00000000 	udf	#0
ffff6310:	00000000 	udf	#0
ffff6314:	00000000 	udf	#0
ffff6318:	00000000 	udf	#0
ffff631c:	00000000 	udf	#0
ffff6320:	00000000 	udf	#0
ffff6324:	00000000 	udf	#0
ffff6328:	00000000 	udf	#0
ffff632c:	00000000 	udf	#0
ffff6330:	00000000 	udf	#0
ffff6334:	00000000 	udf	#0
ffff6338:	00000000 	udf	#0
ffff633c:	00000000 	udf	#0
ffff6340:	00000000 	udf	#0
ffff6344:	00000000 	udf	#0
ffff6348:	00000000 	udf	#0
ffff634c:	00000000 	udf	#0
ffff6350:	00000000 	udf	#0
ffff6354:	00000000 	udf	#0
ffff6358:	00000000 	udf	#0
ffff635c:	00000000 	udf	#0
ffff6360:	00000000 	udf	#0
ffff6364:	00000000 	udf	#0
ffff6368:	00000000 	udf	#0
ffff636c:	00000000 	udf	#0
ffff6370:	00000000 	udf	#0
ffff6374:	00000000 	udf	#0
ffff6378:	00000000 	udf	#0
ffff637c:	00000000 	udf	#0
ffff6380:	00000000 	udf	#0
ffff6384:	00000000 	udf	#0
ffff6388:	00000000 	udf	#0
ffff638c:	00000000 	udf	#0
ffff6390:	00000000 	udf	#0
ffff6394:	00000000 	udf	#0
ffff6398:	00000000 	udf	#0
ffff639c:	00000000 	udf	#0
ffff63a0:	00000000 	udf	#0
ffff63a4:	00000000 	udf	#0
ffff63a8:	00000000 	udf	#0
ffff63ac:	00000000 	udf	#0
ffff63b0:	00000000 	udf	#0
ffff63b4:	00000000 	udf	#0
ffff63b8:	00000000 	udf	#0
ffff63bc:	00000000 	udf	#0
ffff63c0:	00000000 	udf	#0
ffff63c4:	00000000 	udf	#0
ffff63c8:	00000000 	udf	#0
ffff63cc:	00000000 	udf	#0
ffff63d0:	00000000 	udf	#0
ffff63d4:	00000000 	udf	#0
ffff63d8:	00000000 	udf	#0
ffff63dc:	00000000 	udf	#0
ffff63e0:	00000000 	udf	#0
ffff63e4:	00000000 	udf	#0
ffff63e8:	00000000 	udf	#0
ffff63ec:	00000000 	udf	#0
ffff63f0:	00000000 	udf	#0
ffff63f4:	00000000 	udf	#0
ffff63f8:	00000000 	udf	#0
ffff63fc:	00000000 	udf	#0
ffff6400:	00000000 	udf	#0
ffff6404:	00000000 	udf	#0
ffff6408:	00000000 	udf	#0
ffff640c:	00000000 	udf	#0
ffff6410:	00000000 	udf	#0
ffff6414:	00000000 	udf	#0
ffff6418:	00000000 	udf	#0
ffff641c:	00000000 	udf	#0
ffff6420:	00000000 	udf	#0
ffff6424:	00000000 	udf	#0
ffff6428:	00000000 	udf	#0
ffff642c:	00000000 	udf	#0
ffff6430:	00000000 	udf	#0
ffff6434:	00000000 	udf	#0
ffff6438:	00000000 	udf	#0
ffff643c:	00000000 	udf	#0
ffff6440:	00000000 	udf	#0
ffff6444:	00000000 	udf	#0
ffff6448:	00000000 	udf	#0
ffff644c:	00000000 	udf	#0
ffff6450:	00000000 	udf	#0
ffff6454:	00000000 	udf	#0
ffff6458:	00000000 	udf	#0
ffff645c:	00000000 	udf	#0
ffff6460:	00000000 	udf	#0
ffff6464:	00000000 	udf	#0
ffff6468:	00000000 	udf	#0
ffff646c:	00000000 	udf	#0
ffff6470:	00000000 	udf	#0
ffff6474:	00000000 	udf	#0
ffff6478:	00000000 	udf	#0
ffff647c:	00000000 	udf	#0
ffff6480:	00000000 	udf	#0
ffff6484:	00000000 	udf	#0
ffff6488:	00000000 	udf	#0
ffff648c:	00000000 	udf	#0
ffff6490:	00000000 	udf	#0
ffff6494:	00000000 	udf	#0
ffff6498:	00000000 	udf	#0
ffff649c:	00000000 	udf	#0
ffff64a0:	00000000 	udf	#0
ffff64a4:	00000000 	udf	#0
ffff64a8:	00000000 	udf	#0
ffff64ac:	00000000 	udf	#0
ffff64b0:	00000000 	udf	#0
ffff64b4:	00000000 	udf	#0
ffff64b8:	00000000 	udf	#0
ffff64bc:	00000000 	udf	#0
ffff64c0:	00000000 	udf	#0
ffff64c4:	00000000 	udf	#0
ffff64c8:	00000000 	udf	#0
ffff64cc:	00000000 	udf	#0
ffff64d0:	00000000 	udf	#0
ffff64d4:	00000000 	udf	#0
ffff64d8:	00000000 	udf	#0
ffff64dc:	00000000 	udf	#0
ffff64e0:	00000000 	udf	#0
ffff64e4:	00000000 	udf	#0
ffff64e8:	00000000 	udf	#0
ffff64ec:	00000000 	udf	#0
ffff64f0:	00000000 	udf	#0
ffff64f4:	00000000 	udf	#0
ffff64f8:	00000000 	udf	#0
ffff64fc:	00000000 	udf	#0
ffff6500:	00000000 	udf	#0
ffff6504:	00000000 	udf	#0
ffff6508:	00000000 	udf	#0
ffff650c:	00000000 	udf	#0
ffff6510:	00000000 	udf	#0
ffff6514:	00000000 	udf	#0
ffff6518:	00000000 	udf	#0
ffff651c:	00000000 	udf	#0
ffff6520:	00000000 	udf	#0
ffff6524:	00000000 	udf	#0
ffff6528:	00000000 	udf	#0
ffff652c:	00000000 	udf	#0
ffff6530:	00000000 	udf	#0
ffff6534:	00000000 	udf	#0
ffff6538:	00000000 	udf	#0
ffff653c:	00000000 	udf	#0
ffff6540:	00000000 	udf	#0
ffff6544:	00000000 	udf	#0
ffff6548:	00000000 	udf	#0
ffff654c:	00000000 	udf	#0
ffff6550:	00000000 	udf	#0
ffff6554:	00000000 	udf	#0
ffff6558:	00000000 	udf	#0
ffff655c:	00000000 	udf	#0
ffff6560:	00000000 	udf	#0
ffff6564:	00000000 	udf	#0
ffff6568:	00000000 	udf	#0
ffff656c:	00000000 	udf	#0
ffff6570:	00000000 	udf	#0
ffff6574:	00000000 	udf	#0
ffff6578:	00000000 	udf	#0
ffff657c:	00000000 	udf	#0
ffff6580:	00000000 	udf	#0
ffff6584:	00000000 	udf	#0
ffff6588:	00000000 	udf	#0
ffff658c:	00000000 	udf	#0
ffff6590:	00000000 	udf	#0
ffff6594:	00000000 	udf	#0
ffff6598:	00000000 	udf	#0
ffff659c:	00000000 	udf	#0
ffff65a0:	00000000 	udf	#0
ffff65a4:	00000000 	udf	#0
ffff65a8:	00000000 	udf	#0
ffff65ac:	00000000 	udf	#0
ffff65b0:	00000000 	udf	#0
ffff65b4:	00000000 	udf	#0
ffff65b8:	00000000 	udf	#0
ffff65bc:	00000000 	udf	#0
ffff65c0:	00000000 	udf	#0
ffff65c4:	00000000 	udf	#0
ffff65c8:	00000000 	udf	#0
ffff65cc:	00000000 	udf	#0
ffff65d0:	00000000 	udf	#0
ffff65d4:	00000000 	udf	#0
ffff65d8:	00000000 	udf	#0
ffff65dc:	00000000 	udf	#0
ffff65e0:	00000000 	udf	#0
ffff65e4:	00000000 	udf	#0
ffff65e8:	00000000 	udf	#0
ffff65ec:	00000000 	udf	#0
ffff65f0:	00000000 	udf	#0
ffff65f4:	00000000 	udf	#0
ffff65f8:	00000000 	udf	#0
ffff65fc:	00000000 	udf	#0
ffff6600:	00000000 	udf	#0
ffff6604:	00000000 	udf	#0
ffff6608:	00000000 	udf	#0
ffff660c:	00000000 	udf	#0
ffff6610:	00000000 	udf	#0
ffff6614:	00000000 	udf	#0
ffff6618:	00000000 	udf	#0
ffff661c:	00000000 	udf	#0
ffff6620:	00000000 	udf	#0
ffff6624:	00000000 	udf	#0
ffff6628:	00000000 	udf	#0
ffff662c:	00000000 	udf	#0
ffff6630:	00000000 	udf	#0
ffff6634:	00000000 	udf	#0
ffff6638:	00000000 	udf	#0
ffff663c:	00000000 	udf	#0
ffff6640:	00000000 	udf	#0
ffff6644:	00000000 	udf	#0
ffff6648:	00000000 	udf	#0
ffff664c:	00000000 	udf	#0
ffff6650:	00000000 	udf	#0
ffff6654:	00000000 	udf	#0
ffff6658:	00000000 	udf	#0
ffff665c:	00000000 	udf	#0
ffff6660:	00000000 	udf	#0
ffff6664:	00000000 	udf	#0
ffff6668:	00000000 	udf	#0
ffff666c:	00000000 	udf	#0
ffff6670:	00000000 	udf	#0
ffff6674:	00000000 	udf	#0
ffff6678:	00000000 	udf	#0
ffff667c:	00000000 	udf	#0
ffff6680:	00000000 	udf	#0
ffff6684:	00000000 	udf	#0
ffff6688:	00000000 	udf	#0
ffff668c:	00000000 	udf	#0
ffff6690:	00000000 	udf	#0
ffff6694:	00000000 	udf	#0
ffff6698:	00000000 	udf	#0
ffff669c:	00000000 	udf	#0
ffff66a0:	00000000 	udf	#0
ffff66a4:	00000000 	udf	#0
ffff66a8:	00000000 	udf	#0
ffff66ac:	00000000 	udf	#0
ffff66b0:	00000000 	udf	#0
ffff66b4:	00000000 	udf	#0
ffff66b8:	00000000 	udf	#0
ffff66bc:	00000000 	udf	#0
ffff66c0:	00000000 	udf	#0
ffff66c4:	00000000 	udf	#0
ffff66c8:	00000000 	udf	#0
ffff66cc:	00000000 	udf	#0
ffff66d0:	00000000 	udf	#0
ffff66d4:	00000000 	udf	#0
ffff66d8:	00000000 	udf	#0
ffff66dc:	00000000 	udf	#0
ffff66e0:	00000000 	udf	#0
ffff66e4:	00000000 	udf	#0
ffff66e8:	00000000 	udf	#0
ffff66ec:	00000000 	udf	#0
ffff66f0:	00000000 	udf	#0
ffff66f4:	00000000 	udf	#0
ffff66f8:	00000000 	udf	#0
ffff66fc:	00000000 	udf	#0
ffff6700:	00000000 	udf	#0
ffff6704:	00000000 	udf	#0
ffff6708:	00000000 	udf	#0
ffff670c:	00000000 	udf	#0
ffff6710:	00000000 	udf	#0
ffff6714:	00000000 	udf	#0
ffff6718:	00000000 	udf	#0
ffff671c:	00000000 	udf	#0
ffff6720:	00000000 	udf	#0
ffff6724:	00000000 	udf	#0
ffff6728:	00000000 	udf	#0
ffff672c:	00000000 	udf	#0
ffff6730:	00000000 	udf	#0
ffff6734:	00000000 	udf	#0
ffff6738:	00000000 	udf	#0
ffff673c:	00000000 	udf	#0
ffff6740:	00000000 	udf	#0
ffff6744:	00000000 	udf	#0
ffff6748:	00000000 	udf	#0
ffff674c:	00000000 	udf	#0
ffff6750:	00000000 	udf	#0
ffff6754:	00000000 	udf	#0
ffff6758:	00000000 	udf	#0
ffff675c:	00000000 	udf	#0
ffff6760:	00000000 	udf	#0
ffff6764:	00000000 	udf	#0
ffff6768:	00000000 	udf	#0
ffff676c:	00000000 	udf	#0
ffff6770:	00000000 	udf	#0
ffff6774:	00000000 	udf	#0
ffff6778:	00000000 	udf	#0
ffff677c:	00000000 	udf	#0
ffff6780:	00000000 	udf	#0
ffff6784:	00000000 	udf	#0
ffff6788:	00000000 	udf	#0
ffff678c:	00000000 	udf	#0
ffff6790:	00000000 	udf	#0
ffff6794:	00000000 	udf	#0
ffff6798:	00000000 	udf	#0
ffff679c:	00000000 	udf	#0
ffff67a0:	00000000 	udf	#0
ffff67a4:	00000000 	udf	#0
ffff67a8:	00000000 	udf	#0
ffff67ac:	00000000 	udf	#0
ffff67b0:	00000000 	udf	#0
ffff67b4:	00000000 	udf	#0
ffff67b8:	00000000 	udf	#0
ffff67bc:	00000000 	udf	#0
ffff67c0:	00000000 	udf	#0
ffff67c4:	00000000 	udf	#0
ffff67c8:	00000000 	udf	#0
ffff67cc:	00000000 	udf	#0
ffff67d0:	00000000 	udf	#0
ffff67d4:	00000000 	udf	#0
ffff67d8:	00000000 	udf	#0
ffff67dc:	00000000 	udf	#0
ffff67e0:	00000000 	udf	#0
ffff67e4:	00000000 	udf	#0
ffff67e8:	00000000 	udf	#0
ffff67ec:	00000000 	udf	#0
ffff67f0:	00000000 	udf	#0
ffff67f4:	00000000 	udf	#0
ffff67f8:	00000000 	udf	#0
ffff67fc:	00000000 	udf	#0
ffff6800:	00000000 	udf	#0
ffff6804:	00000000 	udf	#0
ffff6808:	00000000 	udf	#0
ffff680c:	00000000 	udf	#0
ffff6810:	00000000 	udf	#0
ffff6814:	00000000 	udf	#0
ffff6818:	00000000 	udf	#0
ffff681c:	00000000 	udf	#0
ffff6820:	00000000 	udf	#0
ffff6824:	00000000 	udf	#0
ffff6828:	00000000 	udf	#0
ffff682c:	00000000 	udf	#0
ffff6830:	00000000 	udf	#0
ffff6834:	00000000 	udf	#0
ffff6838:	00000000 	udf	#0
ffff683c:	00000000 	udf	#0
ffff6840:	00000000 	udf	#0
ffff6844:	00000000 	udf	#0
ffff6848:	00000000 	udf	#0
ffff684c:	00000000 	udf	#0
ffff6850:	00000000 	udf	#0
ffff6854:	00000000 	udf	#0
ffff6858:	00000000 	udf	#0
ffff685c:	00000000 	udf	#0
ffff6860:	00000000 	udf	#0
ffff6864:	00000000 	udf	#0
ffff6868:	00000000 	udf	#0
ffff686c:	00000000 	udf	#0
ffff6870:	00000000 	udf	#0
ffff6874:	00000000 	udf	#0
ffff6878:	00000000 	udf	#0
ffff687c:	00000000 	udf	#0
ffff6880:	00000000 	udf	#0
ffff6884:	00000000 	udf	#0
ffff6888:	00000000 	udf	#0
ffff688c:	00000000 	udf	#0
ffff6890:	00000000 	udf	#0
ffff6894:	00000000 	udf	#0
ffff6898:	00000000 	udf	#0
ffff689c:	00000000 	udf	#0
ffff68a0:	00000000 	udf	#0
ffff68a4:	00000000 	udf	#0
ffff68a8:	00000000 	udf	#0
ffff68ac:	00000000 	udf	#0
ffff68b0:	00000000 	udf	#0
ffff68b4:	00000000 	udf	#0
ffff68b8:	00000000 	udf	#0
ffff68bc:	00000000 	udf	#0
ffff68c0:	00000000 	udf	#0
ffff68c4:	00000000 	udf	#0
ffff68c8:	00000000 	udf	#0
ffff68cc:	00000000 	udf	#0
ffff68d0:	00000000 	udf	#0
ffff68d4:	00000000 	udf	#0
ffff68d8:	00000000 	udf	#0
ffff68dc:	00000000 	udf	#0
ffff68e0:	00000000 	udf	#0
ffff68e4:	00000000 	udf	#0
ffff68e8:	00000000 	udf	#0
ffff68ec:	00000000 	udf	#0
ffff68f0:	00000000 	udf	#0
ffff68f4:	00000000 	udf	#0
ffff68f8:	00000000 	udf	#0
ffff68fc:	00000000 	udf	#0
ffff6900:	00000000 	udf	#0
ffff6904:	00000000 	udf	#0
ffff6908:	00000000 	udf	#0
ffff690c:	00000000 	udf	#0
ffff6910:	00000000 	udf	#0
ffff6914:	00000000 	udf	#0
ffff6918:	00000000 	udf	#0
ffff691c:	00000000 	udf	#0
ffff6920:	00000000 	udf	#0
ffff6924:	00000000 	udf	#0
ffff6928:	00000000 	udf	#0
ffff692c:	00000000 	udf	#0
ffff6930:	00000000 	udf	#0
ffff6934:	00000000 	udf	#0
ffff6938:	00000000 	udf	#0
ffff693c:	00000000 	udf	#0
ffff6940:	00000000 	udf	#0
ffff6944:	00000000 	udf	#0
ffff6948:	00000000 	udf	#0
ffff694c:	00000000 	udf	#0
ffff6950:	00000000 	udf	#0
ffff6954:	00000000 	udf	#0
ffff6958:	00000000 	udf	#0
ffff695c:	00000000 	udf	#0
ffff6960:	00000000 	udf	#0
ffff6964:	00000000 	udf	#0
ffff6968:	00000000 	udf	#0
ffff696c:	00000000 	udf	#0
ffff6970:	00000000 	udf	#0
ffff6974:	00000000 	udf	#0
ffff6978:	00000000 	udf	#0
ffff697c:	00000000 	udf	#0
ffff6980:	00000000 	udf	#0
ffff6984:	00000000 	udf	#0
ffff6988:	00000000 	udf	#0
ffff698c:	00000000 	udf	#0
ffff6990:	00000000 	udf	#0
ffff6994:	00000000 	udf	#0
ffff6998:	00000000 	udf	#0
ffff699c:	00000000 	udf	#0
ffff69a0:	00000000 	udf	#0
ffff69a4:	00000000 	udf	#0
ffff69a8:	00000000 	udf	#0
ffff69ac:	00000000 	udf	#0
ffff69b0:	00000000 	udf	#0
ffff69b4:	00000000 	udf	#0
ffff69b8:	00000000 	udf	#0
ffff69bc:	00000000 	udf	#0
ffff69c0:	00000000 	udf	#0
ffff69c4:	00000000 	udf	#0
ffff69c8:	00000000 	udf	#0
ffff69cc:	00000000 	udf	#0
ffff69d0:	00000000 	udf	#0
ffff69d4:	00000000 	udf	#0
ffff69d8:	00000000 	udf	#0
ffff69dc:	00000000 	udf	#0
ffff69e0:	00000000 	udf	#0
ffff69e4:	00000000 	udf	#0
ffff69e8:	00000000 	udf	#0
ffff69ec:	00000000 	udf	#0
ffff69f0:	00000000 	udf	#0
ffff69f4:	00000000 	udf	#0
ffff69f8:	00000000 	udf	#0
ffff69fc:	00000000 	udf	#0
ffff6a00:	00000000 	udf	#0
ffff6a04:	00000000 	udf	#0
ffff6a08:	00000000 	udf	#0
ffff6a0c:	00000000 	udf	#0
ffff6a10:	00000000 	udf	#0
ffff6a14:	00000000 	udf	#0
ffff6a18:	00000000 	udf	#0
ffff6a1c:	00000000 	udf	#0
ffff6a20:	00000000 	udf	#0
ffff6a24:	00000000 	udf	#0
ffff6a28:	00000000 	udf	#0
ffff6a2c:	00000000 	udf	#0
ffff6a30:	00000000 	udf	#0
ffff6a34:	00000000 	udf	#0
ffff6a38:	00000000 	udf	#0
ffff6a3c:	00000000 	udf	#0
ffff6a40:	00000000 	udf	#0
ffff6a44:	00000000 	udf	#0
ffff6a48:	00000000 	udf	#0
ffff6a4c:	00000000 	udf	#0
ffff6a50:	00000000 	udf	#0
ffff6a54:	00000000 	udf	#0
ffff6a58:	00000000 	udf	#0
ffff6a5c:	00000000 	udf	#0
ffff6a60:	00000000 	udf	#0
ffff6a64:	00000000 	udf	#0
ffff6a68:	00000000 	udf	#0
ffff6a6c:	00000000 	udf	#0
ffff6a70:	00000000 	udf	#0
ffff6a74:	00000000 	udf	#0
ffff6a78:	00000000 	udf	#0
ffff6a7c:	00000000 	udf	#0
ffff6a80:	00000000 	udf	#0
ffff6a84:	00000000 	udf	#0
ffff6a88:	00000000 	udf	#0
ffff6a8c:	00000000 	udf	#0
ffff6a90:	00000000 	udf	#0
ffff6a94:	00000000 	udf	#0
ffff6a98:	00000000 	udf	#0
ffff6a9c:	00000000 	udf	#0
ffff6aa0:	00000000 	udf	#0
ffff6aa4:	00000000 	udf	#0
ffff6aa8:	00000000 	udf	#0
ffff6aac:	00000000 	udf	#0
ffff6ab0:	00000000 	udf	#0
ffff6ab4:	00000000 	udf	#0
ffff6ab8:	00000000 	udf	#0
ffff6abc:	00000000 	udf	#0
ffff6ac0:	00000000 	udf	#0
ffff6ac4:	00000000 	udf	#0
ffff6ac8:	00000000 	udf	#0
ffff6acc:	00000000 	udf	#0
ffff6ad0:	00000000 	udf	#0
ffff6ad4:	00000000 	udf	#0
ffff6ad8:	00000000 	udf	#0
ffff6adc:	00000000 	udf	#0
ffff6ae0:	00000000 	udf	#0
ffff6ae4:	00000000 	udf	#0
ffff6ae8:	00000000 	udf	#0
ffff6aec:	00000000 	udf	#0
ffff6af0:	00000000 	udf	#0
ffff6af4:	00000000 	udf	#0
ffff6af8:	00000000 	udf	#0
ffff6afc:	00000000 	udf	#0
ffff6b00:	00000000 	udf	#0
ffff6b04:	00000000 	udf	#0
ffff6b08:	00000000 	udf	#0
ffff6b0c:	00000000 	udf	#0
ffff6b10:	00000000 	udf	#0
ffff6b14:	00000000 	udf	#0
ffff6b18:	00000000 	udf	#0
ffff6b1c:	00000000 	udf	#0
ffff6b20:	00000000 	udf	#0
ffff6b24:	00000000 	udf	#0
ffff6b28:	00000000 	udf	#0
ffff6b2c:	00000000 	udf	#0
ffff6b30:	00000000 	udf	#0
ffff6b34:	00000000 	udf	#0
ffff6b38:	00000000 	udf	#0
ffff6b3c:	00000000 	udf	#0
ffff6b40:	00000000 	udf	#0
ffff6b44:	00000000 	udf	#0
ffff6b48:	00000000 	udf	#0
ffff6b4c:	00000000 	udf	#0
ffff6b50:	00000000 	udf	#0
ffff6b54:	00000000 	udf	#0
ffff6b58:	00000000 	udf	#0
ffff6b5c:	00000000 	udf	#0
ffff6b60:	00000000 	udf	#0
ffff6b64:	00000000 	udf	#0
ffff6b68:	00000000 	udf	#0
ffff6b6c:	00000000 	udf	#0
ffff6b70:	00000000 	udf	#0
ffff6b74:	00000000 	udf	#0
ffff6b78:	00000000 	udf	#0
ffff6b7c:	00000000 	udf	#0
ffff6b80:	00000000 	udf	#0
ffff6b84:	00000000 	udf	#0
ffff6b88:	00000000 	udf	#0
ffff6b8c:	00000000 	udf	#0
ffff6b90:	00000000 	udf	#0
ffff6b94:	00000000 	udf	#0
ffff6b98:	00000000 	udf	#0
ffff6b9c:	00000000 	udf	#0
ffff6ba0:	00000000 	udf	#0
ffff6ba4:	00000000 	udf	#0
ffff6ba8:	00000000 	udf	#0
ffff6bac:	00000000 	udf	#0
ffff6bb0:	00000000 	udf	#0
ffff6bb4:	00000000 	udf	#0
ffff6bb8:	00000000 	udf	#0
ffff6bbc:	00000000 	udf	#0
ffff6bc0:	00000000 	udf	#0
ffff6bc4:	00000000 	udf	#0
ffff6bc8:	00000000 	udf	#0
ffff6bcc:	00000000 	udf	#0
ffff6bd0:	00000000 	udf	#0
ffff6bd4:	00000000 	udf	#0
ffff6bd8:	00000000 	udf	#0
ffff6bdc:	00000000 	udf	#0
ffff6be0:	00000000 	udf	#0
ffff6be4:	00000000 	udf	#0
ffff6be8:	00000000 	udf	#0
ffff6bec:	00000000 	udf	#0
ffff6bf0:	00000000 	udf	#0
ffff6bf4:	00000000 	udf	#0
ffff6bf8:	00000000 	udf	#0
ffff6bfc:	00000000 	udf	#0
ffff6c00:	00000000 	udf	#0
ffff6c04:	00000000 	udf	#0
ffff6c08:	00000000 	udf	#0
ffff6c0c:	00000000 	udf	#0
ffff6c10:	00000000 	udf	#0
ffff6c14:	00000000 	udf	#0
ffff6c18:	00000000 	udf	#0
ffff6c1c:	00000000 	udf	#0
ffff6c20:	00000000 	udf	#0
ffff6c24:	00000000 	udf	#0
ffff6c28:	00000000 	udf	#0
ffff6c2c:	00000000 	udf	#0
ffff6c30:	00000000 	udf	#0
ffff6c34:	00000000 	udf	#0
ffff6c38:	00000000 	udf	#0
ffff6c3c:	00000000 	udf	#0
ffff6c40:	00000000 	udf	#0
ffff6c44:	00000000 	udf	#0
ffff6c48:	00000000 	udf	#0
ffff6c4c:	00000000 	udf	#0
ffff6c50:	00000000 	udf	#0
ffff6c54:	00000000 	udf	#0
ffff6c58:	00000000 	udf	#0
ffff6c5c:	00000000 	udf	#0
ffff6c60:	00000000 	udf	#0
ffff6c64:	00000000 	udf	#0
ffff6c68:	00000000 	udf	#0
ffff6c6c:	00000000 	udf	#0
ffff6c70:	00000000 	udf	#0
ffff6c74:	00000000 	udf	#0
ffff6c78:	00000000 	udf	#0
ffff6c7c:	00000000 	udf	#0
ffff6c80:	00000000 	udf	#0
ffff6c84:	00000000 	udf	#0
ffff6c88:	00000000 	udf	#0
ffff6c8c:	00000000 	udf	#0
ffff6c90:	00000000 	udf	#0
ffff6c94:	00000000 	udf	#0
ffff6c98:	00000000 	udf	#0
ffff6c9c:	00000000 	udf	#0
ffff6ca0:	00000000 	udf	#0
ffff6ca4:	00000000 	udf	#0
ffff6ca8:	00000000 	udf	#0
ffff6cac:	00000000 	udf	#0
ffff6cb0:	00000000 	udf	#0
ffff6cb4:	00000000 	udf	#0
ffff6cb8:	00000000 	udf	#0
ffff6cbc:	00000000 	udf	#0
ffff6cc0:	00000000 	udf	#0
ffff6cc4:	00000000 	udf	#0
ffff6cc8:	00000000 	udf	#0
ffff6ccc:	00000000 	udf	#0
ffff6cd0:	00000000 	udf	#0
ffff6cd4:	00000000 	udf	#0
ffff6cd8:	00000000 	udf	#0
ffff6cdc:	00000000 	udf	#0
ffff6ce0:	00000000 	udf	#0
ffff6ce4:	00000000 	udf	#0
ffff6ce8:	00000000 	udf	#0
ffff6cec:	00000000 	udf	#0
ffff6cf0:	00000000 	udf	#0
ffff6cf4:	00000000 	udf	#0
ffff6cf8:	00000000 	udf	#0
ffff6cfc:	00000000 	udf	#0
ffff6d00:	00000000 	udf	#0
ffff6d04:	00000000 	udf	#0
ffff6d08:	00000000 	udf	#0
ffff6d0c:	00000000 	udf	#0
ffff6d10:	00000000 	udf	#0
ffff6d14:	00000000 	udf	#0
ffff6d18:	00000000 	udf	#0
ffff6d1c:	00000000 	udf	#0
ffff6d20:	00000000 	udf	#0
ffff6d24:	00000000 	udf	#0
ffff6d28:	00000000 	udf	#0
ffff6d2c:	00000000 	udf	#0
ffff6d30:	00000000 	udf	#0
ffff6d34:	00000000 	udf	#0
ffff6d38:	00000000 	udf	#0
ffff6d3c:	00000000 	udf	#0
ffff6d40:	00000000 	udf	#0
ffff6d44:	00000000 	udf	#0
ffff6d48:	00000000 	udf	#0
ffff6d4c:	00000000 	udf	#0
ffff6d50:	00000000 	udf	#0
ffff6d54:	00000000 	udf	#0
ffff6d58:	00000000 	udf	#0
ffff6d5c:	00000000 	udf	#0
ffff6d60:	00000000 	udf	#0
ffff6d64:	00000000 	udf	#0
ffff6d68:	00000000 	udf	#0
ffff6d6c:	00000000 	udf	#0
ffff6d70:	00000000 	udf	#0
ffff6d74:	00000000 	udf	#0
ffff6d78:	00000000 	udf	#0
ffff6d7c:	00000000 	udf	#0
ffff6d80:	00000000 	udf	#0
ffff6d84:	00000000 	udf	#0
ffff6d88:	00000000 	udf	#0
ffff6d8c:	00000000 	udf	#0
ffff6d90:	00000000 	udf	#0
ffff6d94:	00000000 	udf	#0
ffff6d98:	00000000 	udf	#0
ffff6d9c:	00000000 	udf	#0
ffff6da0:	00000000 	udf	#0
ffff6da4:	00000000 	udf	#0
ffff6da8:	00000000 	udf	#0
ffff6dac:	00000000 	udf	#0
ffff6db0:	00000000 	udf	#0
ffff6db4:	00000000 	udf	#0
ffff6db8:	00000000 	udf	#0
ffff6dbc:	00000000 	udf	#0
ffff6dc0:	00000000 	udf	#0
ffff6dc4:	00000000 	udf	#0
ffff6dc8:	00000000 	udf	#0
ffff6dcc:	00000000 	udf	#0
ffff6dd0:	00000000 	udf	#0
ffff6dd4:	00000000 	udf	#0
ffff6dd8:	00000000 	udf	#0
ffff6ddc:	00000000 	udf	#0
ffff6de0:	00000000 	udf	#0
ffff6de4:	00000000 	udf	#0
ffff6de8:	00000000 	udf	#0
ffff6dec:	00000000 	udf	#0
ffff6df0:	00000000 	udf	#0
ffff6df4:	00000000 	udf	#0
ffff6df8:	00000000 	udf	#0
ffff6dfc:	00000000 	udf	#0
ffff6e00:	00000000 	udf	#0
ffff6e04:	00000000 	udf	#0
ffff6e08:	00000000 	udf	#0
ffff6e0c:	00000000 	udf	#0
ffff6e10:	00000000 	udf	#0
ffff6e14:	00000000 	udf	#0
ffff6e18:	00000000 	udf	#0
ffff6e1c:	00000000 	udf	#0
ffff6e20:	00000000 	udf	#0
ffff6e24:	00000000 	udf	#0
ffff6e28:	00000000 	udf	#0
ffff6e2c:	00000000 	udf	#0
ffff6e30:	00000000 	udf	#0
ffff6e34:	00000000 	udf	#0
ffff6e38:	00000000 	udf	#0
ffff6e3c:	00000000 	udf	#0
ffff6e40:	00000000 	udf	#0
ffff6e44:	00000000 	udf	#0
ffff6e48:	00000000 	udf	#0
ffff6e4c:	00000000 	udf	#0
ffff6e50:	00000000 	udf	#0
ffff6e54:	00000000 	udf	#0
ffff6e58:	00000000 	udf	#0
ffff6e5c:	00000000 	udf	#0
ffff6e60:	00000000 	udf	#0
ffff6e64:	00000000 	udf	#0
ffff6e68:	00000000 	udf	#0
ffff6e6c:	00000000 	udf	#0
ffff6e70:	00000000 	udf	#0
ffff6e74:	00000000 	udf	#0
ffff6e78:	00000000 	udf	#0
ffff6e7c:	00000000 	udf	#0
ffff6e80:	00000000 	udf	#0
ffff6e84:	00000000 	udf	#0
ffff6e88:	00000000 	udf	#0
ffff6e8c:	00000000 	udf	#0
ffff6e90:	00000000 	udf	#0
ffff6e94:	00000000 	udf	#0
ffff6e98:	00000000 	udf	#0
ffff6e9c:	00000000 	udf	#0
ffff6ea0:	00000000 	udf	#0
ffff6ea4:	00000000 	udf	#0
ffff6ea8:	00000000 	udf	#0
ffff6eac:	00000000 	udf	#0
ffff6eb0:	00000000 	udf	#0
ffff6eb4:	00000000 	udf	#0
ffff6eb8:	00000000 	udf	#0
ffff6ebc:	00000000 	udf	#0
ffff6ec0:	00000000 	udf	#0
ffff6ec4:	00000000 	udf	#0
ffff6ec8:	00000000 	udf	#0
ffff6ecc:	00000000 	udf	#0
ffff6ed0:	00000000 	udf	#0
ffff6ed4:	00000000 	udf	#0
ffff6ed8:	00000000 	udf	#0
ffff6edc:	00000000 	udf	#0
ffff6ee0:	00000000 	udf	#0
ffff6ee4:	00000000 	udf	#0
ffff6ee8:	00000000 	udf	#0
ffff6eec:	00000000 	udf	#0
ffff6ef0:	00000000 	udf	#0
ffff6ef4:	00000000 	udf	#0
ffff6ef8:	00000000 	udf	#0
ffff6efc:	00000000 	udf	#0
ffff6f00:	00000000 	udf	#0
ffff6f04:	00000000 	udf	#0
ffff6f08:	00000000 	udf	#0
ffff6f0c:	00000000 	udf	#0
ffff6f10:	00000000 	udf	#0
ffff6f14:	00000000 	udf	#0
ffff6f18:	00000000 	udf	#0
ffff6f1c:	00000000 	udf	#0
ffff6f20:	00000000 	udf	#0
ffff6f24:	00000000 	udf	#0
ffff6f28:	00000000 	udf	#0
ffff6f2c:	00000000 	udf	#0
ffff6f30:	00000000 	udf	#0
ffff6f34:	00000000 	udf	#0
ffff6f38:	00000000 	udf	#0
ffff6f3c:	00000000 	udf	#0
ffff6f40:	00000000 	udf	#0
ffff6f44:	00000000 	udf	#0
ffff6f48:	00000000 	udf	#0
ffff6f4c:	00000000 	udf	#0
ffff6f50:	00000000 	udf	#0
ffff6f54:	00000000 	udf	#0
ffff6f58:	00000000 	udf	#0
ffff6f5c:	00000000 	udf	#0
ffff6f60:	00000000 	udf	#0
ffff6f64:	00000000 	udf	#0
ffff6f68:	00000000 	udf	#0
ffff6f6c:	00000000 	udf	#0
ffff6f70:	00000000 	udf	#0
ffff6f74:	00000000 	udf	#0
ffff6f78:	00000000 	udf	#0
ffff6f7c:	00000000 	udf	#0
ffff6f80:	00000000 	udf	#0
ffff6f84:	00000000 	udf	#0
ffff6f88:	00000000 	udf	#0
ffff6f8c:	00000000 	udf	#0
ffff6f90:	00000000 	udf	#0
ffff6f94:	00000000 	udf	#0
ffff6f98:	00000000 	udf	#0
ffff6f9c:	00000000 	udf	#0
ffff6fa0:	00000000 	udf	#0
ffff6fa4:	00000000 	udf	#0
ffff6fa8:	00000000 	udf	#0
ffff6fac:	00000000 	udf	#0
ffff6fb0:	00000000 	udf	#0
ffff6fb4:	00000000 	udf	#0
ffff6fb8:	00000000 	udf	#0
ffff6fbc:	00000000 	udf	#0
ffff6fc0:	00000000 	udf	#0
ffff6fc4:	00000000 	udf	#0
ffff6fc8:	00000000 	udf	#0
ffff6fcc:	00000000 	udf	#0
ffff6fd0:	00000000 	udf	#0
ffff6fd4:	00000000 	udf	#0
ffff6fd8:	00000000 	udf	#0
ffff6fdc:	00000000 	udf	#0
ffff6fe0:	00000000 	udf	#0
ffff6fe4:	00000000 	udf	#0
ffff6fe8:	00000000 	udf	#0
ffff6fec:	00000000 	udf	#0
ffff6ff0:	00000000 	udf	#0
ffff6ff4:	00000000 	udf	#0
ffff6ff8:	00000000 	udf	#0
ffff6ffc:	00000000 	udf	#0
ffff7000:	00000000 	udf	#0
ffff7004:	00000000 	udf	#0
ffff7008:	00000000 	udf	#0
ffff700c:	00000000 	udf	#0
ffff7010:	00000000 	udf	#0
ffff7014:	00000000 	udf	#0
ffff7018:	00000000 	udf	#0
ffff701c:	00000000 	udf	#0
ffff7020:	00000000 	udf	#0
ffff7024:	00000000 	udf	#0
ffff7028:	00000000 	udf	#0
ffff702c:	00000000 	udf	#0
ffff7030:	00000000 	udf	#0
ffff7034:	00000000 	udf	#0
ffff7038:	00000000 	udf	#0
ffff703c:	00000000 	udf	#0
ffff7040:	00000000 	udf	#0
ffff7044:	00000000 	udf	#0
ffff7048:	00000000 	udf	#0
ffff704c:	00000000 	udf	#0
ffff7050:	00000000 	udf	#0
ffff7054:	00000000 	udf	#0
ffff7058:	00000000 	udf	#0
ffff705c:	00000000 	udf	#0
ffff7060:	00000000 	udf	#0
ffff7064:	00000000 	udf	#0
ffff7068:	00000000 	udf	#0
ffff706c:	00000000 	udf	#0
ffff7070:	00000000 	udf	#0
ffff7074:	00000000 	udf	#0
ffff7078:	00000000 	udf	#0
ffff707c:	00000000 	udf	#0
ffff7080:	00000000 	udf	#0
ffff7084:	00000000 	udf	#0
ffff7088:	00000000 	udf	#0
ffff708c:	00000000 	udf	#0
ffff7090:	00000000 	udf	#0
ffff7094:	00000000 	udf	#0
ffff7098:	00000000 	udf	#0
ffff709c:	00000000 	udf	#0
ffff70a0:	00000000 	udf	#0
ffff70a4:	00000000 	udf	#0
ffff70a8:	00000000 	udf	#0
ffff70ac:	00000000 	udf	#0
ffff70b0:	00000000 	udf	#0
ffff70b4:	00000000 	udf	#0
ffff70b8:	00000000 	udf	#0
ffff70bc:	00000000 	udf	#0
ffff70c0:	00000000 	udf	#0
ffff70c4:	00000000 	udf	#0
ffff70c8:	00000000 	udf	#0
ffff70cc:	00000000 	udf	#0
ffff70d0:	00000000 	udf	#0
ffff70d4:	00000000 	udf	#0
ffff70d8:	00000000 	udf	#0
ffff70dc:	00000000 	udf	#0
ffff70e0:	00000000 	udf	#0
ffff70e4:	00000000 	udf	#0
ffff70e8:	00000000 	udf	#0
ffff70ec:	00000000 	udf	#0
ffff70f0:	00000000 	udf	#0
ffff70f4:	00000000 	udf	#0
ffff70f8:	00000000 	udf	#0
ffff70fc:	00000000 	udf	#0
ffff7100:	00000000 	udf	#0
ffff7104:	00000000 	udf	#0
ffff7108:	00000000 	udf	#0
ffff710c:	00000000 	udf	#0
ffff7110:	00000000 	udf	#0
ffff7114:	00000000 	udf	#0
ffff7118:	00000000 	udf	#0
ffff711c:	00000000 	udf	#0
ffff7120:	00000000 	udf	#0
ffff7124:	00000000 	udf	#0
ffff7128:	00000000 	udf	#0
ffff712c:	00000000 	udf	#0
ffff7130:	00000000 	udf	#0
ffff7134:	00000000 	udf	#0
ffff7138:	00000000 	udf	#0
ffff713c:	00000000 	udf	#0
ffff7140:	00000000 	udf	#0
ffff7144:	00000000 	udf	#0
ffff7148:	00000000 	udf	#0
ffff714c:	00000000 	udf	#0
ffff7150:	00000000 	udf	#0
ffff7154:	00000000 	udf	#0
ffff7158:	00000000 	udf	#0
ffff715c:	00000000 	udf	#0
ffff7160:	00000000 	udf	#0
ffff7164:	00000000 	udf	#0
ffff7168:	00000000 	udf	#0
ffff716c:	00000000 	udf	#0
ffff7170:	00000000 	udf	#0
ffff7174:	00000000 	udf	#0
ffff7178:	00000000 	udf	#0
ffff717c:	00000000 	udf	#0
ffff7180:	00000000 	udf	#0
ffff7184:	00000000 	udf	#0
ffff7188:	00000000 	udf	#0
ffff718c:	00000000 	udf	#0
ffff7190:	00000000 	udf	#0
ffff7194:	00000000 	udf	#0
ffff7198:	00000000 	udf	#0
ffff719c:	00000000 	udf	#0
ffff71a0:	00000000 	udf	#0
ffff71a4:	00000000 	udf	#0
ffff71a8:	00000000 	udf	#0
ffff71ac:	00000000 	udf	#0
ffff71b0:	00000000 	udf	#0
ffff71b4:	00000000 	udf	#0
ffff71b8:	00000000 	udf	#0
ffff71bc:	00000000 	udf	#0
ffff71c0:	00000000 	udf	#0
ffff71c4:	00000000 	udf	#0
ffff71c8:	00000000 	udf	#0
ffff71cc:	00000000 	udf	#0
ffff71d0:	00000000 	udf	#0
ffff71d4:	00000000 	udf	#0
ffff71d8:	00000000 	udf	#0
ffff71dc:	00000000 	udf	#0
ffff71e0:	00000000 	udf	#0
ffff71e4:	00000000 	udf	#0
ffff71e8:	00000000 	udf	#0
ffff71ec:	00000000 	udf	#0
ffff71f0:	00000000 	udf	#0
ffff71f4:	00000000 	udf	#0
ffff71f8:	00000000 	udf	#0
ffff71fc:	00000000 	udf	#0
ffff7200:	00000000 	udf	#0
ffff7204:	00000000 	udf	#0
ffff7208:	00000000 	udf	#0
ffff720c:	00000000 	udf	#0
ffff7210:	00000000 	udf	#0
ffff7214:	00000000 	udf	#0
ffff7218:	00000000 	udf	#0
ffff721c:	00000000 	udf	#0
ffff7220:	00000000 	udf	#0
ffff7224:	00000000 	udf	#0
ffff7228:	00000000 	udf	#0
ffff722c:	00000000 	udf	#0
ffff7230:	00000000 	udf	#0
ffff7234:	00000000 	udf	#0
ffff7238:	00000000 	udf	#0
ffff723c:	00000000 	udf	#0
ffff7240:	00000000 	udf	#0
ffff7244:	00000000 	udf	#0
ffff7248:	00000000 	udf	#0
ffff724c:	00000000 	udf	#0
ffff7250:	00000000 	udf	#0
ffff7254:	00000000 	udf	#0
ffff7258:	00000000 	udf	#0
ffff725c:	00000000 	udf	#0
ffff7260:	00000000 	udf	#0
ffff7264:	00000000 	udf	#0
ffff7268:	00000000 	udf	#0
ffff726c:	00000000 	udf	#0
ffff7270:	00000000 	udf	#0
ffff7274:	00000000 	udf	#0
ffff7278:	00000000 	udf	#0
ffff727c:	00000000 	udf	#0
ffff7280:	00000000 	udf	#0
ffff7284:	00000000 	udf	#0
ffff7288:	00000000 	udf	#0
ffff728c:	00000000 	udf	#0
ffff7290:	00000000 	udf	#0
ffff7294:	00000000 	udf	#0
ffff7298:	00000000 	udf	#0
ffff729c:	00000000 	udf	#0
ffff72a0:	00000000 	udf	#0
ffff72a4:	00000000 	udf	#0
ffff72a8:	00000000 	udf	#0
ffff72ac:	00000000 	udf	#0
ffff72b0:	00000000 	udf	#0
ffff72b4:	00000000 	udf	#0
ffff72b8:	00000000 	udf	#0
ffff72bc:	00000000 	udf	#0
ffff72c0:	00000000 	udf	#0
ffff72c4:	00000000 	udf	#0
ffff72c8:	00000000 	udf	#0
ffff72cc:	00000000 	udf	#0
ffff72d0:	00000000 	udf	#0
ffff72d4:	00000000 	udf	#0
ffff72d8:	00000000 	udf	#0
ffff72dc:	00000000 	udf	#0
ffff72e0:	00000000 	udf	#0
ffff72e4:	00000000 	udf	#0
ffff72e8:	00000000 	udf	#0
ffff72ec:	00000000 	udf	#0
ffff72f0:	00000000 	udf	#0
ffff72f4:	00000000 	udf	#0
ffff72f8:	00000000 	udf	#0
ffff72fc:	00000000 	udf	#0
ffff7300:	00000000 	udf	#0
ffff7304:	00000000 	udf	#0
ffff7308:	00000000 	udf	#0
ffff730c:	00000000 	udf	#0
ffff7310:	00000000 	udf	#0
ffff7314:	00000000 	udf	#0
ffff7318:	00000000 	udf	#0
ffff731c:	00000000 	udf	#0
ffff7320:	00000000 	udf	#0
ffff7324:	00000000 	udf	#0
ffff7328:	00000000 	udf	#0
ffff732c:	00000000 	udf	#0
ffff7330:	00000000 	udf	#0
ffff7334:	00000000 	udf	#0
ffff7338:	00000000 	udf	#0
ffff733c:	00000000 	udf	#0
ffff7340:	00000000 	udf	#0
ffff7344:	00000000 	udf	#0
ffff7348:	00000000 	udf	#0
ffff734c:	00000000 	udf	#0
ffff7350:	00000000 	udf	#0
ffff7354:	00000000 	udf	#0
ffff7358:	00000000 	udf	#0
ffff735c:	00000000 	udf	#0
ffff7360:	00000000 	udf	#0
ffff7364:	00000000 	udf	#0
ffff7368:	00000000 	udf	#0
ffff736c:	00000000 	udf	#0
ffff7370:	00000000 	udf	#0
ffff7374:	00000000 	udf	#0
ffff7378:	00000000 	udf	#0
ffff737c:	00000000 	udf	#0
ffff7380:	00000000 	udf	#0
ffff7384:	00000000 	udf	#0
ffff7388:	00000000 	udf	#0
ffff738c:	00000000 	udf	#0
ffff7390:	00000000 	udf	#0
ffff7394:	00000000 	udf	#0
ffff7398:	00000000 	udf	#0
ffff739c:	00000000 	udf	#0
ffff73a0:	00000000 	udf	#0
ffff73a4:	00000000 	udf	#0
ffff73a8:	00000000 	udf	#0
ffff73ac:	00000000 	udf	#0
ffff73b0:	00000000 	udf	#0
ffff73b4:	00000000 	udf	#0
ffff73b8:	00000000 	udf	#0
ffff73bc:	00000000 	udf	#0
ffff73c0:	00000000 	udf	#0
ffff73c4:	00000000 	udf	#0
ffff73c8:	00000000 	udf	#0
ffff73cc:	00000000 	udf	#0
ffff73d0:	00000000 	udf	#0
ffff73d4:	00000000 	udf	#0
ffff73d8:	00000000 	udf	#0
ffff73dc:	00000000 	udf	#0
ffff73e0:	00000000 	udf	#0
ffff73e4:	00000000 	udf	#0
ffff73e8:	00000000 	udf	#0
ffff73ec:	00000000 	udf	#0
ffff73f0:	00000000 	udf	#0
ffff73f4:	00000000 	udf	#0
ffff73f8:	00000000 	udf	#0
ffff73fc:	00000000 	udf	#0
ffff7400:	00000000 	udf	#0
ffff7404:	00000000 	udf	#0
ffff7408:	00000000 	udf	#0
ffff740c:	00000000 	udf	#0
ffff7410:	00000000 	udf	#0
ffff7414:	00000000 	udf	#0
ffff7418:	00000000 	udf	#0
ffff741c:	00000000 	udf	#0
ffff7420:	00000000 	udf	#0
ffff7424:	00000000 	udf	#0
ffff7428:	00000000 	udf	#0
ffff742c:	00000000 	udf	#0
ffff7430:	00000000 	udf	#0
ffff7434:	00000000 	udf	#0
ffff7438:	00000000 	udf	#0
ffff743c:	00000000 	udf	#0
ffff7440:	00000000 	udf	#0
ffff7444:	00000000 	udf	#0
ffff7448:	00000000 	udf	#0
ffff744c:	00000000 	udf	#0
ffff7450:	00000000 	udf	#0
ffff7454:	00000000 	udf	#0
ffff7458:	00000000 	udf	#0
ffff745c:	00000000 	udf	#0
ffff7460:	00000000 	udf	#0
ffff7464:	00000000 	udf	#0
ffff7468:	00000000 	udf	#0
ffff746c:	00000000 	udf	#0
ffff7470:	00000000 	udf	#0
ffff7474:	00000000 	udf	#0
ffff7478:	00000000 	udf	#0
ffff747c:	00000000 	udf	#0
ffff7480:	00000000 	udf	#0
ffff7484:	00000000 	udf	#0
ffff7488:	00000000 	udf	#0
ffff748c:	00000000 	udf	#0
ffff7490:	00000000 	udf	#0
ffff7494:	00000000 	udf	#0
ffff7498:	00000000 	udf	#0
ffff749c:	00000000 	udf	#0
ffff74a0:	00000000 	udf	#0
ffff74a4:	00000000 	udf	#0
ffff74a8:	00000000 	udf	#0
ffff74ac:	00000000 	udf	#0
ffff74b0:	00000000 	udf	#0
ffff74b4:	00000000 	udf	#0
ffff74b8:	00000000 	udf	#0
ffff74bc:	00000000 	udf	#0
ffff74c0:	00000000 	udf	#0
ffff74c4:	00000000 	udf	#0
ffff74c8:	00000000 	udf	#0
ffff74cc:	00000000 	udf	#0
ffff74d0:	00000000 	udf	#0
ffff74d4:	00000000 	udf	#0
ffff74d8:	00000000 	udf	#0
ffff74dc:	00000000 	udf	#0
ffff74e0:	00000000 	udf	#0
ffff74e4:	00000000 	udf	#0
ffff74e8:	00000000 	udf	#0
ffff74ec:	00000000 	udf	#0
ffff74f0:	00000000 	udf	#0
ffff74f4:	00000000 	udf	#0
ffff74f8:	00000000 	udf	#0
ffff74fc:	00000000 	udf	#0
ffff7500:	00000000 	udf	#0
ffff7504:	00000000 	udf	#0
ffff7508:	00000000 	udf	#0
ffff750c:	00000000 	udf	#0
ffff7510:	00000000 	udf	#0
ffff7514:	00000000 	udf	#0
ffff7518:	00000000 	udf	#0
ffff751c:	00000000 	udf	#0
ffff7520:	00000000 	udf	#0
ffff7524:	00000000 	udf	#0
ffff7528:	00000000 	udf	#0
ffff752c:	00000000 	udf	#0
ffff7530:	00000000 	udf	#0
ffff7534:	00000000 	udf	#0
ffff7538:	00000000 	udf	#0
ffff753c:	00000000 	udf	#0
ffff7540:	00000000 	udf	#0
ffff7544:	00000000 	udf	#0
ffff7548:	00000000 	udf	#0
ffff754c:	00000000 	udf	#0
ffff7550:	00000000 	udf	#0
ffff7554:	00000000 	udf	#0
ffff7558:	00000000 	udf	#0
ffff755c:	00000000 	udf	#0
ffff7560:	00000000 	udf	#0
ffff7564:	00000000 	udf	#0
ffff7568:	00000000 	udf	#0
ffff756c:	00000000 	udf	#0
ffff7570:	00000000 	udf	#0
ffff7574:	00000000 	udf	#0
ffff7578:	00000000 	udf	#0
ffff757c:	00000000 	udf	#0
ffff7580:	00000000 	udf	#0
ffff7584:	00000000 	udf	#0
ffff7588:	00000000 	udf	#0
ffff758c:	00000000 	udf	#0
ffff7590:	00000000 	udf	#0
ffff7594:	00000000 	udf	#0
ffff7598:	00000000 	udf	#0
ffff759c:	00000000 	udf	#0
ffff75a0:	00000000 	udf	#0
ffff75a4:	00000000 	udf	#0
ffff75a8:	00000000 	udf	#0
ffff75ac:	00000000 	udf	#0
ffff75b0:	00000000 	udf	#0
ffff75b4:	00000000 	udf	#0
ffff75b8:	00000000 	udf	#0
ffff75bc:	00000000 	udf	#0
ffff75c0:	00000000 	udf	#0
ffff75c4:	00000000 	udf	#0
ffff75c8:	00000000 	udf	#0
ffff75cc:	00000000 	udf	#0
ffff75d0:	00000000 	udf	#0
ffff75d4:	00000000 	udf	#0
ffff75d8:	00000000 	udf	#0
ffff75dc:	00000000 	udf	#0
ffff75e0:	00000000 	udf	#0
ffff75e4:	00000000 	udf	#0
ffff75e8:	00000000 	udf	#0
ffff75ec:	00000000 	udf	#0
ffff75f0:	00000000 	udf	#0
ffff75f4:	00000000 	udf	#0
ffff75f8:	00000000 	udf	#0
ffff75fc:	00000000 	udf	#0
ffff7600:	00000000 	udf	#0
ffff7604:	00000000 	udf	#0
ffff7608:	00000000 	udf	#0
ffff760c:	00000000 	udf	#0
ffff7610:	00000000 	udf	#0
ffff7614:	00000000 	udf	#0
ffff7618:	00000000 	udf	#0
ffff761c:	00000000 	udf	#0
ffff7620:	00000000 	udf	#0
ffff7624:	00000000 	udf	#0
ffff7628:	00000000 	udf	#0
ffff762c:	00000000 	udf	#0
ffff7630:	00000000 	udf	#0
ffff7634:	00000000 	udf	#0
ffff7638:	00000000 	udf	#0
ffff763c:	00000000 	udf	#0
ffff7640:	00000000 	udf	#0
ffff7644:	00000000 	udf	#0
ffff7648:	00000000 	udf	#0
ffff764c:	00000000 	udf	#0
ffff7650:	00000000 	udf	#0
ffff7654:	00000000 	udf	#0
ffff7658:	00000000 	udf	#0
ffff765c:	00000000 	udf	#0
ffff7660:	00000000 	udf	#0
ffff7664:	00000000 	udf	#0
ffff7668:	00000000 	udf	#0
ffff766c:	00000000 	udf	#0
ffff7670:	00000000 	udf	#0
ffff7674:	00000000 	udf	#0
ffff7678:	00000000 	udf	#0
ffff767c:	00000000 	udf	#0
ffff7680:	00000000 	udf	#0
ffff7684:	00000000 	udf	#0
ffff7688:	00000000 	udf	#0
ffff768c:	00000000 	udf	#0
ffff7690:	00000000 	udf	#0
ffff7694:	00000000 	udf	#0
ffff7698:	00000000 	udf	#0
ffff769c:	00000000 	udf	#0
ffff76a0:	00000000 	udf	#0
ffff76a4:	00000000 	udf	#0
ffff76a8:	00000000 	udf	#0
ffff76ac:	00000000 	udf	#0
ffff76b0:	00000000 	udf	#0
ffff76b4:	00000000 	udf	#0
ffff76b8:	00000000 	udf	#0
ffff76bc:	00000000 	udf	#0
ffff76c0:	00000000 	udf	#0
ffff76c4:	00000000 	udf	#0
ffff76c8:	00000000 	udf	#0
ffff76cc:	00000000 	udf	#0
ffff76d0:	00000000 	udf	#0
ffff76d4:	00000000 	udf	#0
ffff76d8:	00000000 	udf	#0
ffff76dc:	00000000 	udf	#0
ffff76e0:	00000000 	udf	#0
ffff76e4:	00000000 	udf	#0
ffff76e8:	00000000 	udf	#0
ffff76ec:	00000000 	udf	#0
ffff76f0:	00000000 	udf	#0
ffff76f4:	00000000 	udf	#0
ffff76f8:	00000000 	udf	#0
ffff76fc:	00000000 	udf	#0
ffff7700:	00000000 	udf	#0
ffff7704:	00000000 	udf	#0
ffff7708:	00000000 	udf	#0
ffff770c:	00000000 	udf	#0
ffff7710:	00000000 	udf	#0
ffff7714:	00000000 	udf	#0
ffff7718:	00000000 	udf	#0
ffff771c:	00000000 	udf	#0
ffff7720:	00000000 	udf	#0
ffff7724:	00000000 	udf	#0
ffff7728:	00000000 	udf	#0
ffff772c:	00000000 	udf	#0
ffff7730:	00000000 	udf	#0
ffff7734:	00000000 	udf	#0
ffff7738:	00000000 	udf	#0
ffff773c:	00000000 	udf	#0
ffff7740:	00000000 	udf	#0
ffff7744:	00000000 	udf	#0
ffff7748:	00000000 	udf	#0
ffff774c:	00000000 	udf	#0
ffff7750:	00000000 	udf	#0
ffff7754:	00000000 	udf	#0
ffff7758:	00000000 	udf	#0
ffff775c:	00000000 	udf	#0
ffff7760:	00000000 	udf	#0
ffff7764:	00000000 	udf	#0
ffff7768:	00000000 	udf	#0
ffff776c:	00000000 	udf	#0
ffff7770:	00000000 	udf	#0
ffff7774:	00000000 	udf	#0
ffff7778:	00000000 	udf	#0
ffff777c:	00000000 	udf	#0
ffff7780:	00000000 	udf	#0
ffff7784:	00000000 	udf	#0
ffff7788:	00000000 	udf	#0
ffff778c:	00000000 	udf	#0
ffff7790:	00000000 	udf	#0
ffff7794:	00000000 	udf	#0
ffff7798:	00000000 	udf	#0
ffff779c:	00000000 	udf	#0
ffff77a0:	00000000 	udf	#0
ffff77a4:	00000000 	udf	#0
ffff77a8:	00000000 	udf	#0
ffff77ac:	00000000 	udf	#0
ffff77b0:	00000000 	udf	#0
ffff77b4:	00000000 	udf	#0
ffff77b8:	00000000 	udf	#0
ffff77bc:	00000000 	udf	#0
ffff77c0:	00000000 	udf	#0
ffff77c4:	00000000 	udf	#0
ffff77c8:	00000000 	udf	#0
ffff77cc:	00000000 	udf	#0
ffff77d0:	00000000 	udf	#0
ffff77d4:	00000000 	udf	#0
ffff77d8:	00000000 	udf	#0
ffff77dc:	00000000 	udf	#0
ffff77e0:	00000000 	udf	#0
ffff77e4:	00000000 	udf	#0
ffff77e8:	00000000 	udf	#0
ffff77ec:	00000000 	udf	#0
ffff77f0:	00000000 	udf	#0
ffff77f4:	00000000 	udf	#0
ffff77f8:	00000000 	udf	#0
ffff77fc:	00000000 	udf	#0
ffff7800:	00000000 	udf	#0
ffff7804:	00000000 	udf	#0
ffff7808:	00000000 	udf	#0
ffff780c:	00000000 	udf	#0
ffff7810:	00000000 	udf	#0
ffff7814:	00000000 	udf	#0
ffff7818:	00000000 	udf	#0
ffff781c:	00000000 	udf	#0
ffff7820:	00000000 	udf	#0
ffff7824:	00000000 	udf	#0
ffff7828:	00000000 	udf	#0
ffff782c:	00000000 	udf	#0
ffff7830:	00000000 	udf	#0
ffff7834:	00000000 	udf	#0
ffff7838:	00000000 	udf	#0
ffff783c:	00000000 	udf	#0
ffff7840:	00000000 	udf	#0
ffff7844:	00000000 	udf	#0
ffff7848:	00000000 	udf	#0
ffff784c:	00000000 	udf	#0
ffff7850:	00000000 	udf	#0
ffff7854:	00000000 	udf	#0
ffff7858:	00000000 	udf	#0
ffff785c:	00000000 	udf	#0
ffff7860:	00000000 	udf	#0
ffff7864:	00000000 	udf	#0
ffff7868:	00000000 	udf	#0
ffff786c:	00000000 	udf	#0
ffff7870:	00000000 	udf	#0
ffff7874:	00000000 	udf	#0
ffff7878:	00000000 	udf	#0
ffff787c:	00000000 	udf	#0
ffff7880:	00000000 	udf	#0
ffff7884:	00000000 	udf	#0
ffff7888:	00000000 	udf	#0
ffff788c:	00000000 	udf	#0
ffff7890:	00000000 	udf	#0
ffff7894:	00000000 	udf	#0
ffff7898:	00000000 	udf	#0
ffff789c:	00000000 	udf	#0
ffff78a0:	00000000 	udf	#0
ffff78a4:	00000000 	udf	#0
ffff78a8:	00000000 	udf	#0
ffff78ac:	00000000 	udf	#0
ffff78b0:	00000000 	udf	#0
ffff78b4:	00000000 	udf	#0
ffff78b8:	00000000 	udf	#0
ffff78bc:	00000000 	udf	#0
ffff78c0:	00000000 	udf	#0
ffff78c4:	00000000 	udf	#0
ffff78c8:	00000000 	udf	#0
ffff78cc:	00000000 	udf	#0
ffff78d0:	00000000 	udf	#0
ffff78d4:	00000000 	udf	#0
ffff78d8:	00000000 	udf	#0
ffff78dc:	00000000 	udf	#0
ffff78e0:	00000000 	udf	#0
ffff78e4:	00000000 	udf	#0
ffff78e8:	00000000 	udf	#0
ffff78ec:	00000000 	udf	#0
ffff78f0:	00000000 	udf	#0
ffff78f4:	00000000 	udf	#0
ffff78f8:	00000000 	udf	#0
ffff78fc:	00000000 	udf	#0
ffff7900:	00000000 	udf	#0
ffff7904:	00000000 	udf	#0
ffff7908:	00000000 	udf	#0
ffff790c:	00000000 	udf	#0
ffff7910:	00000000 	udf	#0
ffff7914:	00000000 	udf	#0
ffff7918:	00000000 	udf	#0
ffff791c:	00000000 	udf	#0
ffff7920:	00000000 	udf	#0
ffff7924:	00000000 	udf	#0
ffff7928:	00000000 	udf	#0
ffff792c:	00000000 	udf	#0
ffff7930:	00000000 	udf	#0
ffff7934:	00000000 	udf	#0
ffff7938:	00000000 	udf	#0
ffff793c:	00000000 	udf	#0
ffff7940:	00000000 	udf	#0
ffff7944:	00000000 	udf	#0
ffff7948:	00000000 	udf	#0
ffff794c:	00000000 	udf	#0
ffff7950:	00000000 	udf	#0
ffff7954:	00000000 	udf	#0
ffff7958:	00000000 	udf	#0
ffff795c:	00000000 	udf	#0
ffff7960:	00000000 	udf	#0
ffff7964:	00000000 	udf	#0
ffff7968:	00000000 	udf	#0
ffff796c:	00000000 	udf	#0
ffff7970:	00000000 	udf	#0
ffff7974:	00000000 	udf	#0
ffff7978:	00000000 	udf	#0
ffff797c:	00000000 	udf	#0
ffff7980:	00000000 	udf	#0
ffff7984:	00000000 	udf	#0
ffff7988:	00000000 	udf	#0
ffff798c:	00000000 	udf	#0
ffff7990:	00000000 	udf	#0
ffff7994:	00000000 	udf	#0
ffff7998:	00000000 	udf	#0
ffff799c:	00000000 	udf	#0
ffff79a0:	00000000 	udf	#0
ffff79a4:	00000000 	udf	#0
ffff79a8:	00000000 	udf	#0
ffff79ac:	00000000 	udf	#0
ffff79b0:	00000000 	udf	#0
ffff79b4:	00000000 	udf	#0
ffff79b8:	00000000 	udf	#0
ffff79bc:	00000000 	udf	#0
ffff79c0:	00000000 	udf	#0
ffff79c4:	00000000 	udf	#0
ffff79c8:	00000000 	udf	#0
ffff79cc:	00000000 	udf	#0
ffff79d0:	00000000 	udf	#0
ffff79d4:	00000000 	udf	#0
ffff79d8:	00000000 	udf	#0
ffff79dc:	00000000 	udf	#0
ffff79e0:	00000000 	udf	#0
ffff79e4:	00000000 	udf	#0
ffff79e8:	00000000 	udf	#0
ffff79ec:	00000000 	udf	#0
ffff79f0:	00000000 	udf	#0
ffff79f4:	00000000 	udf	#0
ffff79f8:	00000000 	udf	#0
ffff79fc:	00000000 	udf	#0
ffff7a00:	00000000 	udf	#0
ffff7a04:	00000000 	udf	#0
ffff7a08:	00000000 	udf	#0
ffff7a0c:	00000000 	udf	#0
ffff7a10:	00000000 	udf	#0
ffff7a14:	00000000 	udf	#0
ffff7a18:	00000000 	udf	#0
ffff7a1c:	00000000 	udf	#0
ffff7a20:	00000000 	udf	#0
ffff7a24:	00000000 	udf	#0
ffff7a28:	00000000 	udf	#0
ffff7a2c:	00000000 	udf	#0
ffff7a30:	00000000 	udf	#0
ffff7a34:	00000000 	udf	#0
ffff7a38:	00000000 	udf	#0
ffff7a3c:	00000000 	udf	#0
ffff7a40:	00000000 	udf	#0
ffff7a44:	00000000 	udf	#0
ffff7a48:	00000000 	udf	#0
ffff7a4c:	00000000 	udf	#0
ffff7a50:	00000000 	udf	#0
ffff7a54:	00000000 	udf	#0
ffff7a58:	00000000 	udf	#0
ffff7a5c:	00000000 	udf	#0
ffff7a60:	00000000 	udf	#0
ffff7a64:	00000000 	udf	#0
ffff7a68:	00000000 	udf	#0
ffff7a6c:	00000000 	udf	#0
ffff7a70:	00000000 	udf	#0
ffff7a74:	00000000 	udf	#0
ffff7a78:	00000000 	udf	#0
ffff7a7c:	00000000 	udf	#0
ffff7a80:	00000000 	udf	#0
ffff7a84:	00000000 	udf	#0
ffff7a88:	00000000 	udf	#0
ffff7a8c:	00000000 	udf	#0
ffff7a90:	00000000 	udf	#0
ffff7a94:	00000000 	udf	#0
ffff7a98:	00000000 	udf	#0
ffff7a9c:	00000000 	udf	#0
ffff7aa0:	00000000 	udf	#0
ffff7aa4:	00000000 	udf	#0
ffff7aa8:	00000000 	udf	#0
ffff7aac:	00000000 	udf	#0
ffff7ab0:	00000000 	udf	#0
ffff7ab4:	00000000 	udf	#0
ffff7ab8:	00000000 	udf	#0
ffff7abc:	00000000 	udf	#0
ffff7ac0:	00000000 	udf	#0
ffff7ac4:	00000000 	udf	#0
ffff7ac8:	00000000 	udf	#0
ffff7acc:	00000000 	udf	#0
ffff7ad0:	00000000 	udf	#0
ffff7ad4:	00000000 	udf	#0
ffff7ad8:	00000000 	udf	#0
ffff7adc:	00000000 	udf	#0
ffff7ae0:	00000000 	udf	#0
ffff7ae4:	00000000 	udf	#0
ffff7ae8:	00000000 	udf	#0
ffff7aec:	00000000 	udf	#0
ffff7af0:	00000000 	udf	#0
ffff7af4:	00000000 	udf	#0
ffff7af8:	00000000 	udf	#0
ffff7afc:	00000000 	udf	#0
ffff7b00:	00000000 	udf	#0
ffff7b04:	00000000 	udf	#0
ffff7b08:	00000000 	udf	#0
ffff7b0c:	00000000 	udf	#0
ffff7b10:	00000000 	udf	#0
ffff7b14:	00000000 	udf	#0
ffff7b18:	00000000 	udf	#0
ffff7b1c:	00000000 	udf	#0
ffff7b20:	00000000 	udf	#0
ffff7b24:	00000000 	udf	#0
ffff7b28:	00000000 	udf	#0
ffff7b2c:	00000000 	udf	#0
ffff7b30:	00000000 	udf	#0
ffff7b34:	00000000 	udf	#0
ffff7b38:	00000000 	udf	#0
ffff7b3c:	00000000 	udf	#0
ffff7b40:	00000000 	udf	#0
ffff7b44:	00000000 	udf	#0
ffff7b48:	00000000 	udf	#0
ffff7b4c:	00000000 	udf	#0
ffff7b50:	00000000 	udf	#0
ffff7b54:	00000000 	udf	#0
ffff7b58:	00000000 	udf	#0
ffff7b5c:	00000000 	udf	#0
ffff7b60:	00000000 	udf	#0
ffff7b64:	00000000 	udf	#0
ffff7b68:	00000000 	udf	#0
ffff7b6c:	00000000 	udf	#0
ffff7b70:	00000000 	udf	#0
ffff7b74:	00000000 	udf	#0
ffff7b78:	00000000 	udf	#0
ffff7b7c:	00000000 	udf	#0
ffff7b80:	00000000 	udf	#0
ffff7b84:	00000000 	udf	#0
ffff7b88:	00000000 	udf	#0
ffff7b8c:	00000000 	udf	#0
ffff7b90:	00000000 	udf	#0
ffff7b94:	00000000 	udf	#0
ffff7b98:	00000000 	udf	#0
ffff7b9c:	00000000 	udf	#0
ffff7ba0:	00000000 	udf	#0
ffff7ba4:	00000000 	udf	#0
ffff7ba8:	00000000 	udf	#0
ffff7bac:	00000000 	udf	#0
ffff7bb0:	00000000 	udf	#0
ffff7bb4:	00000000 	udf	#0
ffff7bb8:	00000000 	udf	#0
ffff7bbc:	00000000 	udf	#0
ffff7bc0:	00000000 	udf	#0
ffff7bc4:	00000000 	udf	#0
ffff7bc8:	00000000 	udf	#0
ffff7bcc:	00000000 	udf	#0
ffff7bd0:	00000000 	udf	#0
ffff7bd4:	00000000 	udf	#0
ffff7bd8:	00000000 	udf	#0
ffff7bdc:	00000000 	udf	#0
ffff7be0:	00000000 	udf	#0
ffff7be4:	00000000 	udf	#0
ffff7be8:	00000000 	udf	#0
ffff7bec:	00000000 	udf	#0
ffff7bf0:	00000000 	udf	#0
ffff7bf4:	00000000 	udf	#0
ffff7bf8:	00000000 	udf	#0
ffff7bfc:	00000000 	udf	#0
ffff7c00:	00000000 	udf	#0
ffff7c04:	00000000 	udf	#0
ffff7c08:	00000000 	udf	#0
ffff7c0c:	00000000 	udf	#0
ffff7c10:	00000000 	udf	#0
ffff7c14:	00000000 	udf	#0
ffff7c18:	00000000 	udf	#0
ffff7c1c:	00000000 	udf	#0
ffff7c20:	00000000 	udf	#0
ffff7c24:	00000000 	udf	#0
ffff7c28:	00000000 	udf	#0
ffff7c2c:	00000000 	udf	#0
ffff7c30:	00000000 	udf	#0
ffff7c34:	00000000 	udf	#0
ffff7c38:	00000000 	udf	#0
ffff7c3c:	00000000 	udf	#0
ffff7c40:	00000000 	udf	#0
ffff7c44:	00000000 	udf	#0
ffff7c48:	00000000 	udf	#0
ffff7c4c:	00000000 	udf	#0
ffff7c50:	00000000 	udf	#0
ffff7c54:	00000000 	udf	#0
ffff7c58:	00000000 	udf	#0
ffff7c5c:	00000000 	udf	#0
ffff7c60:	00000000 	udf	#0
ffff7c64:	00000000 	udf	#0
ffff7c68:	00000000 	udf	#0
ffff7c6c:	00000000 	udf	#0
ffff7c70:	00000000 	udf	#0
ffff7c74:	00000000 	udf	#0
ffff7c78:	00000000 	udf	#0
ffff7c7c:	00000000 	udf	#0
ffff7c80:	00000000 	udf	#0
ffff7c84:	00000000 	udf	#0
ffff7c88:	00000000 	udf	#0
ffff7c8c:	00000000 	udf	#0
ffff7c90:	00000000 	udf	#0
ffff7c94:	00000000 	udf	#0
ffff7c98:	00000000 	udf	#0
ffff7c9c:	00000000 	udf	#0
ffff7ca0:	00000000 	udf	#0
ffff7ca4:	00000000 	udf	#0
ffff7ca8:	00000000 	udf	#0
ffff7cac:	00000000 	udf	#0
ffff7cb0:	00000000 	udf	#0
ffff7cb4:	00000000 	udf	#0
ffff7cb8:	00000000 	udf	#0
ffff7cbc:	00000000 	udf	#0
ffff7cc0:	00000000 	udf	#0
ffff7cc4:	00000000 	udf	#0
ffff7cc8:	00000000 	udf	#0
ffff7ccc:	00000000 	udf	#0
ffff7cd0:	00000000 	udf	#0
ffff7cd4:	00000000 	udf	#0
ffff7cd8:	00000000 	udf	#0
ffff7cdc:	00000000 	udf	#0
ffff7ce0:	00000000 	udf	#0
ffff7ce4:	00000000 	udf	#0
ffff7ce8:	00000000 	udf	#0
ffff7cec:	00000000 	udf	#0
ffff7cf0:	00000000 	udf	#0
ffff7cf4:	00000000 	udf	#0
ffff7cf8:	00000000 	udf	#0
ffff7cfc:	00000000 	udf	#0
ffff7d00:	00000000 	udf	#0
ffff7d04:	00000000 	udf	#0
ffff7d08:	00000000 	udf	#0
ffff7d0c:	00000000 	udf	#0
ffff7d10:	00000000 	udf	#0
ffff7d14:	00000000 	udf	#0
ffff7d18:	00000000 	udf	#0
ffff7d1c:	00000000 	udf	#0
ffff7d20:	00000000 	udf	#0
ffff7d24:	00000000 	udf	#0
ffff7d28:	00000000 	udf	#0
ffff7d2c:	00000000 	udf	#0
ffff7d30:	00000000 	udf	#0
ffff7d34:	00000000 	udf	#0
ffff7d38:	00000000 	udf	#0
ffff7d3c:	00000000 	udf	#0
ffff7d40:	00000000 	udf	#0
ffff7d44:	00000000 	udf	#0
ffff7d48:	00000000 	udf	#0
ffff7d4c:	00000000 	udf	#0
ffff7d50:	00000000 	udf	#0
ffff7d54:	00000000 	udf	#0
ffff7d58:	00000000 	udf	#0
ffff7d5c:	00000000 	udf	#0
ffff7d60:	00000000 	udf	#0
ffff7d64:	00000000 	udf	#0
ffff7d68:	00000000 	udf	#0
ffff7d6c:	00000000 	udf	#0
ffff7d70:	00000000 	udf	#0
ffff7d74:	00000000 	udf	#0
ffff7d78:	00000000 	udf	#0
ffff7d7c:	00000000 	udf	#0
ffff7d80:	00000000 	udf	#0
ffff7d84:	00000000 	udf	#0
ffff7d88:	00000000 	udf	#0
ffff7d8c:	00000000 	udf	#0
ffff7d90:	00000000 	udf	#0
ffff7d94:	00000000 	udf	#0
ffff7d98:	00000000 	udf	#0
ffff7d9c:	00000000 	udf	#0
ffff7da0:	00000000 	udf	#0
ffff7da4:	00000000 	udf	#0
ffff7da8:	00000000 	udf	#0
ffff7dac:	00000000 	udf	#0
ffff7db0:	00000000 	udf	#0
ffff7db4:	00000000 	udf	#0
ffff7db8:	00000000 	udf	#0
ffff7dbc:	00000000 	udf	#0
ffff7dc0:	00000000 	udf	#0
ffff7dc4:	00000000 	udf	#0
ffff7dc8:	00000000 	udf	#0
ffff7dcc:	00000000 	udf	#0
ffff7dd0:	00000000 	udf	#0
ffff7dd4:	00000000 	udf	#0
ffff7dd8:	00000000 	udf	#0
ffff7ddc:	00000000 	udf	#0
ffff7de0:	00000000 	udf	#0
ffff7de4:	00000000 	udf	#0
ffff7de8:	00000000 	udf	#0
ffff7dec:	00000000 	udf	#0
ffff7df0:	00000000 	udf	#0
ffff7df4:	00000000 	udf	#0
ffff7df8:	00000000 	udf	#0
ffff7dfc:	00000000 	udf	#0
ffff7e00:	00000000 	udf	#0
ffff7e04:	00000000 	udf	#0
ffff7e08:	00000000 	udf	#0
ffff7e0c:	00000000 	udf	#0
ffff7e10:	00000000 	udf	#0
ffff7e14:	00000000 	udf	#0
ffff7e18:	00000000 	udf	#0
ffff7e1c:	00000000 	udf	#0
ffff7e20:	00000000 	udf	#0
ffff7e24:	00000000 	udf	#0
ffff7e28:	00000000 	udf	#0
ffff7e2c:	00000000 	udf	#0
ffff7e30:	00000000 	udf	#0
ffff7e34:	00000000 	udf	#0
ffff7e38:	00000000 	udf	#0
ffff7e3c:	00000000 	udf	#0
ffff7e40:	00000000 	udf	#0
ffff7e44:	00000000 	udf	#0
ffff7e48:	00000000 	udf	#0
ffff7e4c:	00000000 	udf	#0
ffff7e50:	00000000 	udf	#0
ffff7e54:	00000000 	udf	#0
ffff7e58:	00000000 	udf	#0
ffff7e5c:	00000000 	udf	#0
ffff7e60:	00000000 	udf	#0
ffff7e64:	00000000 	udf	#0
ffff7e68:	00000000 	udf	#0
ffff7e6c:	00000000 	udf	#0
ffff7e70:	00000000 	udf	#0
ffff7e74:	00000000 	udf	#0
ffff7e78:	00000000 	udf	#0
ffff7e7c:	00000000 	udf	#0
ffff7e80:	00000000 	udf	#0
ffff7e84:	00000000 	udf	#0
ffff7e88:	00000000 	udf	#0
ffff7e8c:	00000000 	udf	#0
ffff7e90:	00000000 	udf	#0
ffff7e94:	00000000 	udf	#0
ffff7e98:	00000000 	udf	#0
ffff7e9c:	00000000 	udf	#0
ffff7ea0:	00000000 	udf	#0
ffff7ea4:	00000000 	udf	#0
ffff7ea8:	00000000 	udf	#0
ffff7eac:	00000000 	udf	#0
ffff7eb0:	00000000 	udf	#0
ffff7eb4:	00000000 	udf	#0
ffff7eb8:	00000000 	udf	#0
ffff7ebc:	00000000 	udf	#0
ffff7ec0:	00000000 	udf	#0
ffff7ec4:	00000000 	udf	#0
ffff7ec8:	00000000 	udf	#0
ffff7ecc:	00000000 	udf	#0
ffff7ed0:	00000000 	udf	#0
ffff7ed4:	00000000 	udf	#0
ffff7ed8:	00000000 	udf	#0
ffff7edc:	00000000 	udf	#0
ffff7ee0:	00000000 	udf	#0
ffff7ee4:	00000000 	udf	#0
ffff7ee8:	00000000 	udf	#0
ffff7eec:	00000000 	udf	#0
ffff7ef0:	00000000 	udf	#0
ffff7ef4:	00000000 	udf	#0
ffff7ef8:	00000000 	udf	#0
ffff7efc:	00000000 	udf	#0
ffff7f00:	00000000 	udf	#0
ffff7f04:	00000000 	udf	#0
ffff7f08:	00000000 	udf	#0
ffff7f0c:	00000000 	udf	#0
ffff7f10:	00000000 	udf	#0
ffff7f14:	00000000 	udf	#0
ffff7f18:	00000000 	udf	#0
ffff7f1c:	00000000 	udf	#0
ffff7f20:	00000000 	udf	#0
ffff7f24:	00000000 	udf	#0
ffff7f28:	00000000 	udf	#0
ffff7f2c:	00000000 	udf	#0
ffff7f30:	00000000 	udf	#0
ffff7f34:	00000000 	udf	#0
ffff7f38:	00000000 	udf	#0
ffff7f3c:	00000000 	udf	#0
ffff7f40:	00000000 	udf	#0
ffff7f44:	00000000 	udf	#0
ffff7f48:	00000000 	udf	#0
ffff7f4c:	00000000 	udf	#0
ffff7f50:	00000000 	udf	#0
ffff7f54:	00000000 	udf	#0
ffff7f58:	00000000 	udf	#0
ffff7f5c:	00000000 	udf	#0
ffff7f60:	00000000 	udf	#0
ffff7f64:	00000000 	udf	#0
ffff7f68:	00000000 	udf	#0
ffff7f6c:	00000000 	udf	#0
ffff7f70:	00000000 	udf	#0
ffff7f74:	00000000 	udf	#0
ffff7f78:	00000000 	udf	#0
ffff7f7c:	00000000 	udf	#0
ffff7f80:	00000000 	udf	#0
ffff7f84:	00000000 	udf	#0
ffff7f88:	00000000 	udf	#0
ffff7f8c:	00000000 	udf	#0
ffff7f90:	00000000 	udf	#0
ffff7f94:	00000000 	udf	#0
ffff7f98:	00000000 	udf	#0
ffff7f9c:	00000000 	udf	#0
ffff7fa0:	00000000 	udf	#0
ffff7fa4:	00000000 	udf	#0
ffff7fa8:	00000000 	udf	#0
ffff7fac:	00000000 	udf	#0
ffff7fb0:	00000000 	udf	#0
ffff7fb4:	00000000 	udf	#0
ffff7fb8:	00000000 	udf	#0
ffff7fbc:	00000000 	udf	#0
ffff7fc0:	00000000 	udf	#0
ffff7fc4:	00000000 	udf	#0
ffff7fc8:	00000000 	udf	#0
ffff7fcc:	00000000 	udf	#0
ffff7fd0:	00000000 	udf	#0
ffff7fd4:	00000000 	udf	#0
ffff7fd8:	00000000 	udf	#0
ffff7fdc:	00000000 	udf	#0
ffff7fe0:	00000000 	udf	#0
ffff7fe4:	00000000 	udf	#0
ffff7fe8:	00000000 	udf	#0
ffff7fec:	00000000 	udf	#0
ffff7ff0:	00000000 	udf	#0
ffff7ff4:	00000000 	udf	#0
ffff7ff8:	00000000 	udf	#0
ffff7ffc:	00000000 	udf	#0
